	.text
	.attribute	4, 16
	.attribute	5, "rv32i2p0"
	.file	"str_cat.py"
	.globl	before_main                     # -- Begin function before_main
	.p2align	2
	.type	before_main,@function
before_main:                            # @before_main
	.cfi_startproc
# %bb.0:                                # %label0
	addi	sp, sp, -16
	.cfi_def_cfa_offset 16
	sw	ra, 12(sp)                      # 4-byte Folded Spill
	.cfi_offset ra, -4
	#APP
	lui	a0, 8192
	add	s11, zero, a0
	#NO_APP
	call	heap.init@plt
	#APP
	mv	s10, gp
	add	s11, s11, s10
	li	s0, 0
	lw	ra, 12(sp)
	addi	sp, sp, 16
	ret

	#NO_APP
.Lfunc_end0:
	.size	before_main, .Lfunc_end0-before_main
	.cfi_endproc
                                        # -- End function
	.globl	main                            # -- Begin function main
	.p2align	2
	.type	main,@function
main:                                   # @main
	.cfi_startproc
# %bb.0:                                # %label0
	addi	sp, sp, -1280
	.cfi_def_cfa_offset 1280
	sw	ra, 1276(sp)                    # 4-byte Folded Spill
	sw	s0, 1272(sp)                    # 4-byte Folded Spill
	sw	s1, 1268(sp)                    # 4-byte Folded Spill
	sw	s2, 1264(sp)                    # 4-byte Folded Spill
	sw	s3, 1260(sp)                    # 4-byte Folded Spill
	sw	s4, 1256(sp)                    # 4-byte Folded Spill
	sw	s5, 1252(sp)                    # 4-byte Folded Spill
	sw	s6, 1248(sp)                    # 4-byte Folded Spill
	sw	s7, 1244(sp)                    # 4-byte Folded Spill
	sw	s8, 1240(sp)                    # 4-byte Folded Spill
	sw	s9, 1236(sp)                    # 4-byte Folded Spill
	sw	s10, 1232(sp)                   # 4-byte Folded Spill
	sw	s11, 1228(sp)                   # 4-byte Folded Spill
	.cfi_offset ra, -4
	.cfi_offset s0, -8
	.cfi_offset s1, -12
	.cfi_offset s2, -16
	.cfi_offset s3, -20
	.cfi_offset s4, -24
	.cfi_offset s5, -28
	.cfi_offset s6, -32
	.cfi_offset s7, -36
	.cfi_offset s8, -40
	.cfi_offset s9, -44
	.cfi_offset s10, -48
	.cfi_offset s11, -52
	#APP
	mv	s0, sp
	#NO_APP
	lui	a0, %hi(const_9)
	addi	a0, a0, %lo(const_9)
	lui	a1, %hi(char_list_const9)
	sw	a1, 484(sp)                     # 4-byte Folded Spill
	sw	a0, %lo(char_list_const9)(a1)
	lui	a0, %hi(const_10)
	addi	a0, a0, %lo(const_10)
	lui	a2, %hi(char_list_const10)
	sw	a0, %lo(char_list_const10)(a2)
	lui	a0, %hi(const_11)
	addi	a0, a0, %lo(const_11)
	lui	a3, %hi(char_list_const11)
	sw	a0, %lo(char_list_const11)(a3)
	lui	a0, %hi(const_12)
	addi	a0, a0, %lo(const_12)
	lui	a4, %hi(char_list_const12)
	sw	a0, %lo(char_list_const12)(a4)
	lui	a0, %hi(const_13)
	addi	a0, a0, %lo(const_13)
	lui	a5, %hi(char_list_const13)
	sw	a0, %lo(char_list_const13)(a5)
	lui	a0, %hi(const_14)
	addi	a0, a0, %lo(const_14)
	lui	a6, %hi(char_list_const14)
	sw	a0, %lo(char_list_const14)(a6)
	lui	a0, %hi(const_15)
	addi	a0, a0, %lo(const_15)
	lui	a7, %hi(char_list_const15)
	sw	a0, %lo(char_list_const15)(a7)
	lui	a0, %hi(const_16)
	addi	a0, a0, %lo(const_16)
	lui	a1, %hi(char_list_const16)
	sw	a1, 488(sp)                     # 4-byte Folded Spill
	sw	a0, %lo(char_list_const16)(a1)
	lui	a0, %hi(const_17)
	addi	a0, a0, %lo(const_17)
	lui	t1, %hi(char_list_const17)
	sw	a0, %lo(char_list_const17)(t1)
	lui	a0, %hi(const_18)
	addi	a0, a0, %lo(const_18)
	lui	t2, %hi(char_list_const18)
	sw	a0, %lo(char_list_const18)(t2)
	lui	a0, %hi(const_19)
	addi	a0, a0, %lo(const_19)
	lui	t3, %hi(char_list_const19)
	sw	a0, %lo(char_list_const19)(t3)
	lui	a0, %hi(const_20)
	addi	a0, a0, %lo(const_20)
	lui	t4, %hi(char_list_const20)
	sw	a0, %lo(char_list_const20)(t4)
	lui	a0, %hi(const_21)
	addi	a0, a0, %lo(const_21)
	lui	t5, %hi(char_list_const21)
	sw	a0, %lo(char_list_const21)(t5)
	lui	a0, %hi(const_22)
	addi	a0, a0, %lo(const_22)
	lui	t6, %hi(char_list_const22)
	sw	a0, %lo(char_list_const22)(t6)
	lui	a0, %hi(const_23)
	addi	a0, a0, %lo(const_23)
	lui	s0, %hi(char_list_const23)
	sw	a0, %lo(char_list_const23)(s0)
	lui	a0, %hi(const_24)
	addi	a0, a0, %lo(const_24)
	lui	s1, %hi(char_list_const24)
	sw	a0, %lo(char_list_const24)(s1)
	lui	a0, %hi(const_25)
	addi	a0, a0, %lo(const_25)
	lui	s2, %hi(char_list_const25)
	sw	a0, %lo(char_list_const25)(s2)
	lui	a0, %hi(const_26)
	addi	a0, a0, %lo(const_26)
	lui	s3, %hi(char_list_const26)
	sw	a0, %lo(char_list_const26)(s3)
	lui	a0, %hi(const_27)
	addi	a0, a0, %lo(const_27)
	lui	s4, %hi(char_list_const27)
	sw	a0, %lo(char_list_const27)(s4)
	lui	a0, %hi(const_28)
	addi	a0, a0, %lo(const_28)
	lui	s5, %hi(char_list_const28)
	sw	a0, %lo(char_list_const28)(s5)
	lui	a0, %hi(const_29)
	addi	a0, a0, %lo(const_29)
	lui	s6, %hi(char_list_const29)
	sw	a0, %lo(char_list_const29)(s6)
	lui	a0, %hi(const_30)
	addi	a0, a0, %lo(const_30)
	lui	s7, %hi(char_list_const30)
	sw	a0, %lo(char_list_const30)(s7)
	lui	a0, %hi(const_31)
	addi	a0, a0, %lo(const_31)
	lui	s8, %hi(char_list_const31)
	sw	a0, %lo(char_list_const31)(s8)
	lui	a0, %hi(const_32)
	addi	a0, a0, %lo(const_32)
	lui	s9, %hi(char_list_const32)
	sw	a0, %lo(char_list_const32)(s9)
	lui	a0, %hi(const_33)
	addi	a0, a0, %lo(const_33)
	lui	s10, %hi(char_list_const33)
	sw	a0, %lo(char_list_const33)(s10)
	lui	a0, %hi(const_34)
	addi	a0, a0, %lo(const_34)
	lui	s11, %hi(char_list_const34)
	sw	a0, %lo(char_list_const34)(s11)
	lui	a0, %hi(const_35)
	addi	a0, a0, %lo(const_35)
	lui	ra, %hi(char_list_const35)
	sw	a0, %lo(char_list_const35)(ra)
	lui	a0, %hi(const_36)
	addi	a0, a0, %lo(const_36)
	lui	a1, %hi(char_list_const36)
	sw	a1, 492(sp)                     # 4-byte Folded Spill
	sw	a0, %lo(char_list_const36)(a1)
	lui	a0, %hi(const_37)
	addi	a0, a0, %lo(const_37)
	lui	a1, %hi(char_list_const37)
	sw	a1, 496(sp)                     # 4-byte Folded Spill
	sw	a0, %lo(char_list_const37)(a1)
	lui	a0, %hi(const_38)
	addi	a0, a0, %lo(const_38)
	lui	a1, %hi(char_list_const38)
	sw	a1, 500(sp)                     # 4-byte Folded Spill
	sw	a0, %lo(char_list_const38)(a1)
	lui	a0, %hi(const_39)
	addi	a0, a0, %lo(const_39)
	lui	a1, %hi(char_list_const39)
	sw	a1, 504(sp)                     # 4-byte Folded Spill
	sw	a0, %lo(char_list_const39)(a1)
	lui	a0, %hi(const_40)
	addi	a0, a0, %lo(const_40)
	lui	a1, %hi(char_list_const40)
	sw	a1, 508(sp)                     # 4-byte Folded Spill
	sw	a0, %lo(char_list_const40)(a1)
	lui	a0, %hi(const_41)
	addi	a0, a0, %lo(const_41)
	lui	a1, %hi(char_list_const41)
	sw	a1, 512(sp)                     # 4-byte Folded Spill
	sw	a0, %lo(char_list_const41)(a1)
	lui	a0, %hi(const_42)
	addi	a0, a0, %lo(const_42)
	lui	a1, %hi(char_list_const42)
	sw	a1, 516(sp)                     # 4-byte Folded Spill
	sw	a0, %lo(char_list_const42)(a1)
	lui	a0, %hi(const_43)
	addi	a0, a0, %lo(const_43)
	lui	a1, %hi(char_list_const43)
	sw	a1, 520(sp)                     # 4-byte Folded Spill
	sw	a0, %lo(char_list_const43)(a1)
	lui	a0, %hi(const_44)
	addi	a0, a0, %lo(const_44)
	lui	a1, %hi(char_list_const44)
	sw	a1, 524(sp)                     # 4-byte Folded Spill
	sw	a0, %lo(char_list_const44)(a1)
	lui	a0, %hi(const_45)
	addi	a0, a0, %lo(const_45)
	lui	a1, %hi(char_list_const45)
	sw	a1, 528(sp)                     # 4-byte Folded Spill
	sw	a0, %lo(char_list_const45)(a1)
	lui	a0, %hi(const_46)
	addi	a0, a0, %lo(const_46)
	lui	a1, %hi(char_list_const46)
	sw	a1, 532(sp)                     # 4-byte Folded Spill
	sw	a0, %lo(char_list_const46)(a1)
	lui	a0, %hi(const_47)
	addi	a0, a0, %lo(const_47)
	lui	a1, %hi(char_list_const47)
	sw	a1, 536(sp)                     # 4-byte Folded Spill
	sw	a0, %lo(char_list_const47)(a1)
	lui	a0, %hi(const_48)
	addi	a0, a0, %lo(const_48)
	lui	a1, %hi(char_list_const48)
	sw	a1, 540(sp)                     # 4-byte Folded Spill
	sw	a0, %lo(char_list_const48)(a1)
	lui	a0, %hi(const_49)
	addi	a0, a0, %lo(const_49)
	lui	a1, %hi(char_list_const49)
	sw	a1, 544(sp)                     # 4-byte Folded Spill
	sw	a0, %lo(char_list_const49)(a1)
	lui	a0, %hi(const_50)
	addi	a0, a0, %lo(const_50)
	lui	a1, %hi(char_list_const50)
	sw	a1, 548(sp)                     # 4-byte Folded Spill
	sw	a0, %lo(char_list_const50)(a1)
	lui	a0, %hi(const_51)
	addi	a0, a0, %lo(const_51)
	lui	a1, %hi(char_list_const51)
	sw	a1, 552(sp)                     # 4-byte Folded Spill
	sw	a0, %lo(char_list_const51)(a1)
	lui	a0, %hi(const_52)
	addi	a0, a0, %lo(const_52)
	lui	a1, %hi(char_list_const52)
	sw	a1, 556(sp)                     # 4-byte Folded Spill
	sw	a0, %lo(char_list_const52)(a1)
	lui	a0, %hi(const_53)
	addi	a0, a0, %lo(const_53)
	lui	a1, %hi(char_list_const53)
	sw	a1, 560(sp)                     # 4-byte Folded Spill
	sw	a0, %lo(char_list_const53)(a1)
	lui	a0, %hi(const_54)
	addi	a0, a0, %lo(const_54)
	lui	a1, %hi(char_list_const54)
	sw	a1, 564(sp)                     # 4-byte Folded Spill
	sw	a0, %lo(char_list_const54)(a1)
	lui	a0, %hi(const_55)
	addi	a0, a0, %lo(const_55)
	lui	a1, %hi(char_list_const55)
	sw	a1, 568(sp)                     # 4-byte Folded Spill
	sw	a0, %lo(char_list_const55)(a1)
	lui	a0, %hi(const_56)
	addi	a0, a0, %lo(const_56)
	lui	a1, %hi(char_list_const56)
	sw	a1, 572(sp)                     # 4-byte Folded Spill
	sw	a0, %lo(char_list_const56)(a1)
	lui	a0, %hi(const_57)
	addi	a0, a0, %lo(const_57)
	lui	a1, %hi(char_list_const57)
	sw	a1, 576(sp)                     # 4-byte Folded Spill
	sw	a0, %lo(char_list_const57)(a1)
	lui	a0, %hi(const_58)
	addi	a0, a0, %lo(const_58)
	lui	a1, %hi(char_list_const58)
	sw	a1, 580(sp)                     # 4-byte Folded Spill
	sw	a0, %lo(char_list_const58)(a1)
	lui	a0, %hi(const_59)
	addi	a0, a0, %lo(const_59)
	lui	a1, %hi(char_list_const59)
	sw	a1, 584(sp)                     # 4-byte Folded Spill
	sw	a0, %lo(char_list_const59)(a1)
	lui	a0, %hi(const_60)
	addi	a0, a0, %lo(const_60)
	lui	a1, %hi(char_list_const60)
	sw	a1, 588(sp)                     # 4-byte Folded Spill
	sw	a0, %lo(char_list_const60)(a1)
	lui	a0, %hi(const_61)
	addi	a0, a0, %lo(const_61)
	lui	a1, %hi(char_list_const61)
	sw	a1, 592(sp)                     # 4-byte Folded Spill
	sw	a0, %lo(char_list_const61)(a1)
	lui	a0, %hi(const_62)
	addi	a0, a0, %lo(const_62)
	lui	a1, %hi(char_list_const62)
	sw	a1, 596(sp)                     # 4-byte Folded Spill
	sw	a0, %lo(char_list_const62)(a1)
	lui	a0, %hi(const_63)
	addi	a0, a0, %lo(const_63)
	lui	a1, %hi(char_list_const63)
	sw	a1, 600(sp)                     # 4-byte Folded Spill
	sw	a0, %lo(char_list_const63)(a1)
	lui	a0, %hi(const_64)
	addi	a0, a0, %lo(const_64)
	lui	a1, %hi(char_list_const64)
	sw	a1, 604(sp)                     # 4-byte Folded Spill
	sw	a0, %lo(char_list_const64)(a1)
	lui	a0, %hi(const_65)
	addi	a0, a0, %lo(const_65)
	lui	a1, %hi(char_list_const65)
	sw	a1, 608(sp)                     # 4-byte Folded Spill
	sw	a0, %lo(char_list_const65)(a1)
	lui	a0, %hi(const_66)
	addi	a0, a0, %lo(const_66)
	lui	a1, %hi(char_list_const66)
	sw	a1, 612(sp)                     # 4-byte Folded Spill
	sw	a0, %lo(char_list_const66)(a1)
	lui	a0, %hi(const_67)
	addi	a0, a0, %lo(const_67)
	lui	a1, %hi(char_list_const67)
	sw	a1, 616(sp)                     # 4-byte Folded Spill
	sw	a0, %lo(char_list_const67)(a1)
	lui	a0, %hi(const_68)
	addi	a0, a0, %lo(const_68)
	lui	a1, %hi(char_list_const68)
	sw	a1, 620(sp)                     # 4-byte Folded Spill
	sw	a0, %lo(char_list_const68)(a1)
	lui	a0, %hi(const_69)
	addi	a0, a0, %lo(const_69)
	lui	a1, %hi(char_list_const69)
	sw	a1, 624(sp)                     # 4-byte Folded Spill
	sw	a0, %lo(char_list_const69)(a1)
	lui	a0, %hi(const_70)
	addi	a0, a0, %lo(const_70)
	lui	a1, %hi(char_list_const70)
	sw	a1, 628(sp)                     # 4-byte Folded Spill
	sw	a0, %lo(char_list_const70)(a1)
	lui	a0, %hi(const_71)
	addi	a0, a0, %lo(const_71)
	lui	a1, %hi(char_list_const71)
	sw	a1, 632(sp)                     # 4-byte Folded Spill
	sw	a0, %lo(char_list_const71)(a1)
	lui	a0, %hi(const_72)
	addi	a0, a0, %lo(const_72)
	lui	a1, %hi(char_list_const72)
	sw	a1, 636(sp)                     # 4-byte Folded Spill
	sw	a0, %lo(char_list_const72)(a1)
	lui	a0, %hi(const_73)
	addi	a0, a0, %lo(const_73)
	lui	a1, %hi(char_list_const73)
	sw	a1, 640(sp)                     # 4-byte Folded Spill
	sw	a0, %lo(char_list_const73)(a1)
	lui	a0, %hi(const_74)
	addi	a0, a0, %lo(const_74)
	lui	a1, %hi(char_list_const74)
	sw	a1, 644(sp)                     # 4-byte Folded Spill
	sw	a0, %lo(char_list_const74)(a1)
	lui	a0, %hi(const_75)
	addi	a0, a0, %lo(const_75)
	lui	a1, %hi(char_list_const75)
	sw	a1, 648(sp)                     # 4-byte Folded Spill
	sw	a0, %lo(char_list_const75)(a1)
	lui	a0, %hi(const_76)
	addi	a0, a0, %lo(const_76)
	lui	a1, %hi(char_list_const76)
	sw	a1, 652(sp)                     # 4-byte Folded Spill
	sw	a0, %lo(char_list_const76)(a1)
	lui	a0, %hi(const_77)
	addi	a0, a0, %lo(const_77)
	lui	a1, %hi(char_list_const77)
	sw	a1, 656(sp)                     # 4-byte Folded Spill
	sw	a0, %lo(char_list_const77)(a1)
	lui	a0, %hi(const_78)
	addi	a0, a0, %lo(const_78)
	lui	a1, %hi(char_list_const78)
	sw	a1, 660(sp)                     # 4-byte Folded Spill
	sw	a0, %lo(char_list_const78)(a1)
	lui	a0, %hi(const_79)
	addi	a0, a0, %lo(const_79)
	lui	a1, %hi(char_list_const79)
	sw	a1, 664(sp)                     # 4-byte Folded Spill
	sw	a0, %lo(char_list_const79)(a1)
	lui	a0, %hi(const_80)
	addi	a0, a0, %lo(const_80)
	lui	a1, %hi(char_list_const80)
	sw	a1, 668(sp)                     # 4-byte Folded Spill
	sw	a0, %lo(char_list_const80)(a1)
	lui	a0, %hi(const_81)
	addi	a0, a0, %lo(const_81)
	lui	a1, %hi(char_list_const81)
	sw	a1, 672(sp)                     # 4-byte Folded Spill
	sw	a0, %lo(char_list_const81)(a1)
	lui	a0, %hi(const_82)
	addi	a0, a0, %lo(const_82)
	lui	a1, %hi(char_list_const82)
	sw	a1, 676(sp)                     # 4-byte Folded Spill
	sw	a0, %lo(char_list_const82)(a1)
	lui	a0, %hi(const_83)
	addi	a0, a0, %lo(const_83)
	lui	a1, %hi(char_list_const83)
	sw	a1, 680(sp)                     # 4-byte Folded Spill
	sw	a0, %lo(char_list_const83)(a1)
	lui	a0, %hi(const_84)
	addi	a0, a0, %lo(const_84)
	lui	a1, %hi(char_list_const84)
	sw	a1, 684(sp)                     # 4-byte Folded Spill
	sw	a0, %lo(char_list_const84)(a1)
	lui	a0, %hi(const_85)
	addi	a0, a0, %lo(const_85)
	lui	a1, %hi(char_list_const85)
	sw	a1, 688(sp)                     # 4-byte Folded Spill
	sw	a0, %lo(char_list_const85)(a1)
	lui	a0, %hi(const_86)
	addi	a0, a0, %lo(const_86)
	lui	a1, %hi(char_list_const86)
	sw	a1, 692(sp)                     # 4-byte Folded Spill
	sw	a0, %lo(char_list_const86)(a1)
	lui	a0, %hi(const_87)
	addi	a0, a0, %lo(const_87)
	lui	a1, %hi(char_list_const87)
	sw	a1, 696(sp)                     # 4-byte Folded Spill
	sw	a0, %lo(char_list_const87)(a1)
	lui	a0, %hi(const_88)
	addi	a0, a0, %lo(const_88)
	lui	a1, %hi(char_list_const88)
	sw	a1, 700(sp)                     # 4-byte Folded Spill
	sw	a0, %lo(char_list_const88)(a1)
	lui	a0, %hi(const_89)
	addi	a0, a0, %lo(const_89)
	lui	a1, %hi(char_list_const89)
	sw	a1, 704(sp)                     # 4-byte Folded Spill
	sw	a0, %lo(char_list_const89)(a1)
	lui	a0, %hi(const_90)
	addi	a0, a0, %lo(const_90)
	lui	a1, %hi(char_list_const90)
	sw	a1, 708(sp)                     # 4-byte Folded Spill
	sw	a0, %lo(char_list_const90)(a1)
	lui	a0, %hi(const_91)
	addi	a0, a0, %lo(const_91)
	lui	a1, %hi(char_list_const91)
	sw	a1, 712(sp)                     # 4-byte Folded Spill
	sw	a0, %lo(char_list_const91)(a1)
	lui	a0, %hi(const_92)
	addi	a0, a0, %lo(const_92)
	lui	a1, %hi(char_list_const92)
	sw	a1, 716(sp)                     # 4-byte Folded Spill
	sw	a0, %lo(char_list_const92)(a1)
	lui	a0, %hi(const_93)
	addi	a0, a0, %lo(const_93)
	lui	a1, %hi(char_list_const93)
	sw	a1, 720(sp)                     # 4-byte Folded Spill
	sw	a0, %lo(char_list_const93)(a1)
	lui	a0, %hi(const_94)
	addi	a0, a0, %lo(const_94)
	lui	a1, %hi(char_list_const94)
	sw	a1, 724(sp)                     # 4-byte Folded Spill
	sw	a0, %lo(char_list_const94)(a1)
	lui	a0, %hi(const_95)
	addi	a0, a0, %lo(const_95)
	lui	a1, %hi(char_list_const95)
	sw	a1, 728(sp)                     # 4-byte Folded Spill
	sw	a0, %lo(char_list_const95)(a1)
	lui	a0, %hi(const_96)
	addi	a0, a0, %lo(const_96)
	lui	a1, %hi(char_list_const96)
	sw	a1, 732(sp)                     # 4-byte Folded Spill
	sw	a0, %lo(char_list_const96)(a1)
	lui	a0, %hi(const_97)
	addi	a0, a0, %lo(const_97)
	lui	a1, %hi(char_list_const97)
	sw	a1, 736(sp)                     # 4-byte Folded Spill
	sw	a0, %lo(char_list_const97)(a1)
	lui	a0, %hi(const_98)
	addi	a0, a0, %lo(const_98)
	lui	a1, %hi(char_list_const98)
	sw	a1, 740(sp)                     # 4-byte Folded Spill
	sw	a0, %lo(char_list_const98)(a1)
	lui	a0, %hi(const_99)
	addi	a0, a0, %lo(const_99)
	lui	a1, %hi(char_list_const99)
	sw	a1, 744(sp)                     # 4-byte Folded Spill
	sw	a0, %lo(char_list_const99)(a1)
	lui	a0, %hi(const_100)
	addi	a0, a0, %lo(const_100)
	lui	a1, %hi(char_list_const100)
	sw	a1, 748(sp)                     # 4-byte Folded Spill
	sw	a0, %lo(char_list_const100)(a1)
	lui	a0, %hi(const_101)
	addi	a0, a0, %lo(const_101)
	lui	a1, %hi(char_list_const101)
	sw	a1, 752(sp)                     # 4-byte Folded Spill
	sw	a0, %lo(char_list_const101)(a1)
	lui	a0, %hi(const_102)
	addi	a0, a0, %lo(const_102)
	lui	a1, %hi(char_list_const102)
	sw	a1, 756(sp)                     # 4-byte Folded Spill
	sw	a0, %lo(char_list_const102)(a1)
	lui	a0, %hi(const_103)
	addi	a0, a0, %lo(const_103)
	lui	a1, %hi(char_list_const103)
	sw	a1, 760(sp)                     # 4-byte Folded Spill
	sw	a0, %lo(char_list_const103)(a1)
	lui	a0, %hi(const_104)
	addi	a0, a0, %lo(const_104)
	lui	a1, %hi(char_list_const104)
	sw	a1, 764(sp)                     # 4-byte Folded Spill
	sw	a0, %lo(char_list_const104)(a1)
	lui	a0, %hi(const_105)
	addi	a0, a0, %lo(const_105)
	lui	a1, %hi(char_list_const105)
	sw	a1, 768(sp)                     # 4-byte Folded Spill
	sw	a0, %lo(char_list_const105)(a1)
	lui	a0, %hi(const_106)
	addi	a0, a0, %lo(const_106)
	lui	a1, %hi(char_list_const106)
	sw	a1, 772(sp)                     # 4-byte Folded Spill
	sw	a0, %lo(char_list_const106)(a1)
	lui	a0, %hi(const_107)
	addi	a0, a0, %lo(const_107)
	lui	a1, %hi(char_list_const107)
	sw	a1, 776(sp)                     # 4-byte Folded Spill
	sw	a0, %lo(char_list_const107)(a1)
	lui	a0, %hi(const_108)
	addi	a0, a0, %lo(const_108)
	lui	a1, %hi(char_list_const108)
	sw	a1, 780(sp)                     # 4-byte Folded Spill
	sw	a0, %lo(char_list_const108)(a1)
	lui	a0, %hi(const_109)
	addi	a0, a0, %lo(const_109)
	lui	a1, %hi(char_list_const109)
	sw	a1, 784(sp)                     # 4-byte Folded Spill
	sw	a0, %lo(char_list_const109)(a1)
	lui	a0, %hi(const_110)
	addi	a0, a0, %lo(const_110)
	lui	a1, %hi(char_list_const110)
	sw	a1, 788(sp)                     # 4-byte Folded Spill
	sw	a0, %lo(char_list_const110)(a1)
	lui	a0, %hi(const_111)
	addi	a0, a0, %lo(const_111)
	lui	a1, %hi(char_list_const111)
	sw	a1, 792(sp)                     # 4-byte Folded Spill
	sw	a0, %lo(char_list_const111)(a1)
	lui	a0, %hi(const_112)
	addi	a0, a0, %lo(const_112)
	lui	a1, %hi(char_list_const112)
	sw	a1, 796(sp)                     # 4-byte Folded Spill
	sw	a0, %lo(char_list_const112)(a1)
	lui	a0, %hi(const_113)
	addi	a0, a0, %lo(const_113)
	lui	a1, %hi(char_list_const113)
	sw	a1, 800(sp)                     # 4-byte Folded Spill
	sw	a0, %lo(char_list_const113)(a1)
	lui	a0, %hi(const_114)
	addi	a0, a0, %lo(const_114)
	lui	a1, %hi(char_list_const114)
	sw	a1, 804(sp)                     # 4-byte Folded Spill
	sw	a0, %lo(char_list_const114)(a1)
	lui	a0, %hi(const_115)
	addi	a0, a0, %lo(const_115)
	lui	a1, %hi(char_list_const115)
	sw	a1, 808(sp)                     # 4-byte Folded Spill
	sw	a0, %lo(char_list_const115)(a1)
	lui	a0, %hi(const_116)
	addi	a0, a0, %lo(const_116)
	lui	t0, %hi(char_list_const116)
	sw	a0, %lo(char_list_const116)(t0)
	lui	a0, %hi(const_117)
	addi	a0, a0, %lo(const_117)
	sw	a0, 884(sp)                     # 4-byte Folded Spill
	lui	a1, %hi(char_list_const117)
	sw	a0, %lo(char_list_const117)(a1)
	lui	a0, %hi(const_118)
	addi	a0, a0, %lo(const_118)
	sw	a0, 880(sp)                     # 4-byte Folded Spill
	lui	a1, %hi(char_list_const118)
	sw	a0, %lo(char_list_const118)(a1)
	lui	a0, %hi(const_119)
	addi	a0, a0, %lo(const_119)
	sw	a0, 876(sp)                     # 4-byte Folded Spill
	lui	a1, %hi(char_list_const119)
	sw	a0, %lo(char_list_const119)(a1)
	lui	a0, %hi(const_120)
	addi	a0, a0, %lo(const_120)
	sw	a0, 872(sp)                     # 4-byte Folded Spill
	lui	a1, %hi(char_list_const120)
	sw	a0, %lo(char_list_const120)(a1)
	lui	a0, %hi(const_121)
	addi	a0, a0, %lo(const_121)
	sw	a0, 868(sp)                     # 4-byte Folded Spill
	lui	a1, %hi(char_list_const121)
	sw	a0, %lo(char_list_const121)(a1)
	lui	a0, %hi(const_122)
	addi	a0, a0, %lo(const_122)
	sw	a0, 864(sp)                     # 4-byte Folded Spill
	lui	a1, %hi(char_list_const122)
	sw	a0, %lo(char_list_const122)(a1)
	lui	a0, %hi(const_123)
	addi	a0, a0, %lo(const_123)
	sw	a0, 860(sp)                     # 4-byte Folded Spill
	lui	a1, %hi(char_list_const123)
	sw	a0, %lo(char_list_const123)(a1)
	lui	a0, %hi(const_124)
	addi	a0, a0, %lo(const_124)
	sw	a0, 856(sp)                     # 4-byte Folded Spill
	lui	a1, %hi(char_list_const124)
	sw	a0, %lo(char_list_const124)(a1)
	lui	a0, %hi(const_125)
	addi	a0, a0, %lo(const_125)
	sw	a0, 852(sp)                     # 4-byte Folded Spill
	lui	a1, %hi(char_list_const125)
	sw	a0, %lo(char_list_const125)(a1)
	lui	a0, %hi(const_126)
	addi	a0, a0, %lo(const_126)
	sw	a0, 848(sp)                     # 4-byte Folded Spill
	lui	a1, %hi(char_list_const126)
	sw	a0, %lo(char_list_const126)(a1)
	lui	a0, %hi(const_127)
	addi	a0, a0, %lo(const_127)
	sw	a0, 844(sp)                     # 4-byte Folded Spill
	lui	a1, %hi(char_list_const127)
	sw	a0, %lo(char_list_const127)(a1)
	lui	a0, %hi(const_128)
	addi	a0, a0, %lo(const_128)
	sw	a0, 840(sp)                     # 4-byte Folded Spill
	lui	a1, %hi(char_list_const128)
	sw	a0, %lo(char_list_const128)(a1)
	lui	a0, %hi(const_129)
	addi	a0, a0, %lo(const_129)
	sw	a0, 836(sp)                     # 4-byte Folded Spill
	lui	a1, %hi(char_list_const129)
	sw	a0, %lo(char_list_const129)(a1)
	lui	a0, %hi(const_130)
	addi	a0, a0, %lo(const_130)
	sw	a0, 832(sp)                     # 4-byte Folded Spill
	lui	a1, %hi(char_list_const130)
	sw	a0, %lo(char_list_const130)(a1)
	lui	a0, %hi(const_131)
	addi	a0, a0, %lo(const_131)
	sw	a0, 828(sp)                     # 4-byte Folded Spill
	lui	a1, %hi(char_list_const131)
	sw	a0, %lo(char_list_const131)(a1)
	lui	a0, %hi(const_132)
	addi	a0, a0, %lo(const_132)
	sw	a0, 824(sp)                     # 4-byte Folded Spill
	lui	a1, %hi(char_list_const132)
	sw	a0, %lo(char_list_const132)(a1)
	lui	a0, %hi(const_133)
	addi	a0, a0, %lo(const_133)
	sw	a0, 820(sp)                     # 4-byte Folded Spill
	lui	a1, %hi(char_list_const133)
	sw	a0, %lo(char_list_const133)(a1)
	lui	a0, %hi(const_134)
	addi	a0, a0, %lo(const_134)
	sw	a0, 816(sp)                     # 4-byte Folded Spill
	lui	a1, %hi(char_list_const134)
	sw	a0, %lo(char_list_const134)(a1)
	lui	a0, %hi(const_135)
	addi	a0, a0, %lo(const_135)
	sw	a0, 812(sp)                     # 4-byte Folded Spill
	lui	a1, %hi(char_list_const135)
	sw	a0, %lo(char_list_const135)(a1)
	lw	a1, 484(sp)                     # 4-byte Folded Reload
	lw	a0, 488(sp)                     # 4-byte Folded Reload
	lw	a1, %lo(char_list_const9)(a1)
	lw	a2, %lo(char_list_const10)(a2)
	lw	a3, %lo(char_list_const11)(a3)
	lw	a4, %lo(char_list_const12)(a4)
	lw	a5, %lo(char_list_const13)(a5)
	lw	a6, %lo(char_list_const14)(a6)
	lw	a7, %lo(char_list_const15)(a7)
	lw	a0, %lo(char_list_const16)(a0)
	sw	a0, 1212(sp)                    # 4-byte Folded Spill
	lw	a0, 492(sp)                     # 4-byte Folded Reload
	lw	t1, %lo(char_list_const17)(t1)
	lw	t2, %lo(char_list_const18)(t2)
	lw	t3, %lo(char_list_const19)(t3)
	lw	t4, %lo(char_list_const20)(t4)
	lw	t5, %lo(char_list_const21)(t5)
	lw	t6, %lo(char_list_const22)(t6)
	lw	s0, %lo(char_list_const23)(s0)
	lw	s1, %lo(char_list_const24)(s1)
	lw	s2, %lo(char_list_const25)(s2)
	lw	s3, %lo(char_list_const26)(s3)
	lw	s4, %lo(char_list_const27)(s4)
	lw	s5, %lo(char_list_const28)(s5)
	lw	s6, %lo(char_list_const29)(s6)
	lw	s7, %lo(char_list_const30)(s7)
	lw	s8, %lo(char_list_const31)(s8)
	lw	s9, %lo(char_list_const32)(s9)
	lw	s10, %lo(char_list_const33)(s10)
	lw	s11, %lo(char_list_const34)(s11)
	lw	ra, %lo(char_list_const35)(ra)
	lw	a0, %lo(char_list_const36)(a0)
	sw	a0, 1208(sp)                    # 4-byte Folded Spill
	lw	a0, 496(sp)                     # 4-byte Folded Reload
	lw	a0, %lo(char_list_const37)(a0)
	sw	a0, 1204(sp)                    # 4-byte Folded Spill
	lw	a0, 500(sp)                     # 4-byte Folded Reload
	lw	a0, %lo(char_list_const38)(a0)
	sw	a0, 1200(sp)                    # 4-byte Folded Spill
	lw	a0, 504(sp)                     # 4-byte Folded Reload
	lw	a0, %lo(char_list_const39)(a0)
	sw	a0, 1196(sp)                    # 4-byte Folded Spill
	lw	a0, 508(sp)                     # 4-byte Folded Reload
	lw	a0, %lo(char_list_const40)(a0)
	sw	a0, 1192(sp)                    # 4-byte Folded Spill
	lw	a0, 512(sp)                     # 4-byte Folded Reload
	lw	a0, %lo(char_list_const41)(a0)
	sw	a0, 1188(sp)                    # 4-byte Folded Spill
	lw	a0, 516(sp)                     # 4-byte Folded Reload
	lw	a0, %lo(char_list_const42)(a0)
	sw	a0, 1184(sp)                    # 4-byte Folded Spill
	lw	a0, 520(sp)                     # 4-byte Folded Reload
	lw	a0, %lo(char_list_const43)(a0)
	sw	a0, 1180(sp)                    # 4-byte Folded Spill
	lw	a0, 524(sp)                     # 4-byte Folded Reload
	lw	a0, %lo(char_list_const44)(a0)
	sw	a0, 1176(sp)                    # 4-byte Folded Spill
	lw	a0, 528(sp)                     # 4-byte Folded Reload
	lw	a0, %lo(char_list_const45)(a0)
	sw	a0, 1172(sp)                    # 4-byte Folded Spill
	lw	a0, 532(sp)                     # 4-byte Folded Reload
	lw	a0, %lo(char_list_const46)(a0)
	sw	a0, 1168(sp)                    # 4-byte Folded Spill
	lw	a0, 536(sp)                     # 4-byte Folded Reload
	lw	a0, %lo(char_list_const47)(a0)
	sw	a0, 1164(sp)                    # 4-byte Folded Spill
	lw	a0, 540(sp)                     # 4-byte Folded Reload
	lw	a0, %lo(char_list_const48)(a0)
	sw	a0, 1160(sp)                    # 4-byte Folded Spill
	lw	a0, 544(sp)                     # 4-byte Folded Reload
	lw	a0, %lo(char_list_const49)(a0)
	sw	a0, 1156(sp)                    # 4-byte Folded Spill
	lw	a0, 548(sp)                     # 4-byte Folded Reload
	lw	a0, %lo(char_list_const50)(a0)
	sw	a0, 1152(sp)                    # 4-byte Folded Spill
	lw	a0, 552(sp)                     # 4-byte Folded Reload
	lw	a0, %lo(char_list_const51)(a0)
	sw	a0, 1148(sp)                    # 4-byte Folded Spill
	lw	a0, 556(sp)                     # 4-byte Folded Reload
	lw	a0, %lo(char_list_const52)(a0)
	sw	a0, 1144(sp)                    # 4-byte Folded Spill
	lw	a0, 560(sp)                     # 4-byte Folded Reload
	lw	a0, %lo(char_list_const53)(a0)
	sw	a0, 1140(sp)                    # 4-byte Folded Spill
	lw	a0, 564(sp)                     # 4-byte Folded Reload
	lw	a0, %lo(char_list_const54)(a0)
	sw	a0, 1136(sp)                    # 4-byte Folded Spill
	lw	a0, 568(sp)                     # 4-byte Folded Reload
	lw	a0, %lo(char_list_const55)(a0)
	sw	a0, 1132(sp)                    # 4-byte Folded Spill
	lw	a0, 572(sp)                     # 4-byte Folded Reload
	lw	a0, %lo(char_list_const56)(a0)
	sw	a0, 1128(sp)                    # 4-byte Folded Spill
	lw	a0, 576(sp)                     # 4-byte Folded Reload
	lw	a0, %lo(char_list_const57)(a0)
	sw	a0, 1124(sp)                    # 4-byte Folded Spill
	lw	a0, 580(sp)                     # 4-byte Folded Reload
	lw	a0, %lo(char_list_const58)(a0)
	sw	a0, 1120(sp)                    # 4-byte Folded Spill
	lw	a0, 584(sp)                     # 4-byte Folded Reload
	lw	a0, %lo(char_list_const59)(a0)
	sw	a0, 1116(sp)                    # 4-byte Folded Spill
	lw	a0, 588(sp)                     # 4-byte Folded Reload
	lw	a0, %lo(char_list_const60)(a0)
	sw	a0, 1112(sp)                    # 4-byte Folded Spill
	lw	a0, 592(sp)                     # 4-byte Folded Reload
	lw	a0, %lo(char_list_const61)(a0)
	sw	a0, 1108(sp)                    # 4-byte Folded Spill
	lw	a0, 596(sp)                     # 4-byte Folded Reload
	lw	a0, %lo(char_list_const62)(a0)
	sw	a0, 1104(sp)                    # 4-byte Folded Spill
	lw	a0, 600(sp)                     # 4-byte Folded Reload
	lw	a0, %lo(char_list_const63)(a0)
	sw	a0, 1100(sp)                    # 4-byte Folded Spill
	lw	a0, 604(sp)                     # 4-byte Folded Reload
	lw	a0, %lo(char_list_const64)(a0)
	sw	a0, 1096(sp)                    # 4-byte Folded Spill
	lw	a0, 608(sp)                     # 4-byte Folded Reload
	lw	a0, %lo(char_list_const65)(a0)
	sw	a0, 1092(sp)                    # 4-byte Folded Spill
	lw	a0, 612(sp)                     # 4-byte Folded Reload
	lw	a0, %lo(char_list_const66)(a0)
	sw	a0, 1088(sp)                    # 4-byte Folded Spill
	lw	a0, 616(sp)                     # 4-byte Folded Reload
	lw	a0, %lo(char_list_const67)(a0)
	sw	a0, 1084(sp)                    # 4-byte Folded Spill
	lw	a0, 620(sp)                     # 4-byte Folded Reload
	lw	a0, %lo(char_list_const68)(a0)
	sw	a0, 1080(sp)                    # 4-byte Folded Spill
	lw	a0, 624(sp)                     # 4-byte Folded Reload
	lw	a0, %lo(char_list_const69)(a0)
	sw	a0, 1076(sp)                    # 4-byte Folded Spill
	lw	a0, 628(sp)                     # 4-byte Folded Reload
	lw	a0, %lo(char_list_const70)(a0)
	sw	a0, 1072(sp)                    # 4-byte Folded Spill
	lw	a0, 632(sp)                     # 4-byte Folded Reload
	lw	a0, %lo(char_list_const71)(a0)
	sw	a0, 1068(sp)                    # 4-byte Folded Spill
	lw	a0, 636(sp)                     # 4-byte Folded Reload
	lw	a0, %lo(char_list_const72)(a0)
	sw	a0, 1064(sp)                    # 4-byte Folded Spill
	lw	a0, 640(sp)                     # 4-byte Folded Reload
	lw	a0, %lo(char_list_const73)(a0)
	sw	a0, 1060(sp)                    # 4-byte Folded Spill
	lw	a0, 644(sp)                     # 4-byte Folded Reload
	lw	a0, %lo(char_list_const74)(a0)
	sw	a0, 1056(sp)                    # 4-byte Folded Spill
	lw	a0, 648(sp)                     # 4-byte Folded Reload
	lw	a0, %lo(char_list_const75)(a0)
	sw	a0, 1052(sp)                    # 4-byte Folded Spill
	lw	a0, 652(sp)                     # 4-byte Folded Reload
	lw	a0, %lo(char_list_const76)(a0)
	sw	a0, 1048(sp)                    # 4-byte Folded Spill
	lw	a0, 656(sp)                     # 4-byte Folded Reload
	lw	a0, %lo(char_list_const77)(a0)
	sw	a0, 1044(sp)                    # 4-byte Folded Spill
	lw	a0, 660(sp)                     # 4-byte Folded Reload
	lw	a0, %lo(char_list_const78)(a0)
	sw	a0, 1040(sp)                    # 4-byte Folded Spill
	lw	a0, 664(sp)                     # 4-byte Folded Reload
	lw	a0, %lo(char_list_const79)(a0)
	sw	a0, 1036(sp)                    # 4-byte Folded Spill
	lw	a0, 668(sp)                     # 4-byte Folded Reload
	lw	a0, %lo(char_list_const80)(a0)
	sw	a0, 1032(sp)                    # 4-byte Folded Spill
	lw	a0, 672(sp)                     # 4-byte Folded Reload
	lw	a0, %lo(char_list_const81)(a0)
	sw	a0, 1028(sp)                    # 4-byte Folded Spill
	lw	a0, 676(sp)                     # 4-byte Folded Reload
	lw	a0, %lo(char_list_const82)(a0)
	sw	a0, 1024(sp)                    # 4-byte Folded Spill
	lw	a0, 680(sp)                     # 4-byte Folded Reload
	lw	a0, %lo(char_list_const83)(a0)
	sw	a0, 1020(sp)                    # 4-byte Folded Spill
	lw	a0, 684(sp)                     # 4-byte Folded Reload
	lw	a0, %lo(char_list_const84)(a0)
	sw	a0, 1016(sp)                    # 4-byte Folded Spill
	lw	a0, 688(sp)                     # 4-byte Folded Reload
	lw	a0, %lo(char_list_const85)(a0)
	sw	a0, 1012(sp)                    # 4-byte Folded Spill
	lw	a0, 692(sp)                     # 4-byte Folded Reload
	lw	a0, %lo(char_list_const86)(a0)
	sw	a0, 1008(sp)                    # 4-byte Folded Spill
	lw	a0, 696(sp)                     # 4-byte Folded Reload
	lw	a0, %lo(char_list_const87)(a0)
	sw	a0, 1004(sp)                    # 4-byte Folded Spill
	lw	a0, 700(sp)                     # 4-byte Folded Reload
	lw	a0, %lo(char_list_const88)(a0)
	sw	a0, 1000(sp)                    # 4-byte Folded Spill
	lw	a0, 704(sp)                     # 4-byte Folded Reload
	lw	a0, %lo(char_list_const89)(a0)
	sw	a0, 996(sp)                     # 4-byte Folded Spill
	lw	a0, 708(sp)                     # 4-byte Folded Reload
	lw	a0, %lo(char_list_const90)(a0)
	sw	a0, 992(sp)                     # 4-byte Folded Spill
	lw	a0, 712(sp)                     # 4-byte Folded Reload
	lw	a0, %lo(char_list_const91)(a0)
	sw	a0, 988(sp)                     # 4-byte Folded Spill
	lw	a0, 716(sp)                     # 4-byte Folded Reload
	lw	a0, %lo(char_list_const92)(a0)
	sw	a0, 984(sp)                     # 4-byte Folded Spill
	lw	a0, 720(sp)                     # 4-byte Folded Reload
	lw	a0, %lo(char_list_const93)(a0)
	sw	a0, 980(sp)                     # 4-byte Folded Spill
	lw	a0, 724(sp)                     # 4-byte Folded Reload
	lw	a0, %lo(char_list_const94)(a0)
	sw	a0, 976(sp)                     # 4-byte Folded Spill
	lw	a0, 728(sp)                     # 4-byte Folded Reload
	lw	a0, %lo(char_list_const95)(a0)
	sw	a0, 972(sp)                     # 4-byte Folded Spill
	lw	a0, 732(sp)                     # 4-byte Folded Reload
	lw	a0, %lo(char_list_const96)(a0)
	sw	a0, 968(sp)                     # 4-byte Folded Spill
	lw	a0, 736(sp)                     # 4-byte Folded Reload
	lw	a0, %lo(char_list_const97)(a0)
	sw	a0, 964(sp)                     # 4-byte Folded Spill
	lw	a0, 740(sp)                     # 4-byte Folded Reload
	lw	a0, %lo(char_list_const98)(a0)
	sw	a0, 960(sp)                     # 4-byte Folded Spill
	lw	a0, 744(sp)                     # 4-byte Folded Reload
	lw	a0, %lo(char_list_const99)(a0)
	sw	a0, 956(sp)                     # 4-byte Folded Spill
	lw	a0, 748(sp)                     # 4-byte Folded Reload
	lw	a0, %lo(char_list_const100)(a0)
	sw	a0, 952(sp)                     # 4-byte Folded Spill
	lw	a0, 752(sp)                     # 4-byte Folded Reload
	lw	a0, %lo(char_list_const101)(a0)
	sw	a0, 948(sp)                     # 4-byte Folded Spill
	lw	a0, 756(sp)                     # 4-byte Folded Reload
	lw	a0, %lo(char_list_const102)(a0)
	sw	a0, 944(sp)                     # 4-byte Folded Spill
	lw	a0, 760(sp)                     # 4-byte Folded Reload
	lw	a0, %lo(char_list_const103)(a0)
	sw	a0, 940(sp)                     # 4-byte Folded Spill
	lw	a0, 764(sp)                     # 4-byte Folded Reload
	lw	a0, %lo(char_list_const104)(a0)
	sw	a0, 936(sp)                     # 4-byte Folded Spill
	lw	a0, 768(sp)                     # 4-byte Folded Reload
	lw	a0, %lo(char_list_const105)(a0)
	sw	a0, 932(sp)                     # 4-byte Folded Spill
	lw	a0, 772(sp)                     # 4-byte Folded Reload
	lw	a0, %lo(char_list_const106)(a0)
	sw	a0, 928(sp)                     # 4-byte Folded Spill
	lw	a0, 776(sp)                     # 4-byte Folded Reload
	lw	a0, %lo(char_list_const107)(a0)
	sw	a0, 924(sp)                     # 4-byte Folded Spill
	lw	a0, 780(sp)                     # 4-byte Folded Reload
	lw	a0, %lo(char_list_const108)(a0)
	sw	a0, 920(sp)                     # 4-byte Folded Spill
	lw	a0, 784(sp)                     # 4-byte Folded Reload
	lw	a0, %lo(char_list_const109)(a0)
	sw	a0, 916(sp)                     # 4-byte Folded Spill
	lw	a0, 788(sp)                     # 4-byte Folded Reload
	lw	a0, %lo(char_list_const110)(a0)
	sw	a0, 912(sp)                     # 4-byte Folded Spill
	lw	a0, 792(sp)                     # 4-byte Folded Reload
	lw	a0, %lo(char_list_const111)(a0)
	sw	a0, 908(sp)                     # 4-byte Folded Spill
	lw	a0, 796(sp)                     # 4-byte Folded Reload
	lw	a0, %lo(char_list_const112)(a0)
	sw	a0, 904(sp)                     # 4-byte Folded Spill
	lw	a0, 800(sp)                     # 4-byte Folded Reload
	lw	a0, %lo(char_list_const113)(a0)
	sw	a0, 900(sp)                     # 4-byte Folded Spill
	lw	a0, 804(sp)                     # 4-byte Folded Reload
	lw	a0, %lo(char_list_const114)(a0)
	sw	a0, 896(sp)                     # 4-byte Folded Spill
	lw	a0, 808(sp)                     # 4-byte Folded Reload
	lw	a0, %lo(char_list_const115)(a0)
	sw	a0, 892(sp)                     # 4-byte Folded Spill
	lw	a0, 812(sp)                     # 4-byte Folded Reload
	lw	t0, %lo(char_list_const116)(t0)
	sw	t0, 888(sp)                     # 4-byte Folded Spill
	mv	t0, sp
	sw	a0, 476(t0)
	lw	a0, 816(sp)                     # 4-byte Folded Reload
	sw	a0, 472(t0)
	lw	a0, 820(sp)                     # 4-byte Folded Reload
	sw	a0, 468(t0)
	lw	a0, 824(sp)                     # 4-byte Folded Reload
	sw	a0, 464(t0)
	lw	a0, 828(sp)                     # 4-byte Folded Reload
	sw	a0, 460(t0)
	lw	a0, 832(sp)                     # 4-byte Folded Reload
	sw	a0, 456(t0)
	lw	a0, 836(sp)                     # 4-byte Folded Reload
	sw	a0, 452(t0)
	lw	a0, 840(sp)                     # 4-byte Folded Reload
	sw	a0, 448(t0)
	lw	a0, 844(sp)                     # 4-byte Folded Reload
	sw	a0, 444(t0)
	lw	a0, 848(sp)                     # 4-byte Folded Reload
	sw	a0, 440(t0)
	lw	a0, 852(sp)                     # 4-byte Folded Reload
	sw	a0, 436(t0)
	lw	a0, 856(sp)                     # 4-byte Folded Reload
	sw	a0, 432(t0)
	lw	a0, 860(sp)                     # 4-byte Folded Reload
	sw	a0, 428(t0)
	lw	a0, 864(sp)                     # 4-byte Folded Reload
	sw	a0, 424(t0)
	lw	a0, 868(sp)                     # 4-byte Folded Reload
	sw	a0, 420(t0)
	lw	a0, 872(sp)                     # 4-byte Folded Reload
	sw	a0, 416(t0)
	lw	a0, 876(sp)                     # 4-byte Folded Reload
	sw	a0, 412(t0)
	lw	a0, 880(sp)                     # 4-byte Folded Reload
	sw	a0, 408(t0)
	lw	a0, 884(sp)                     # 4-byte Folded Reload
	sw	a0, 404(t0)
	lw	a0, 888(sp)                     # 4-byte Folded Reload
	sw	a0, 400(t0)
	lw	a0, 892(sp)                     # 4-byte Folded Reload
	sw	a0, 396(t0)
	lw	a0, 896(sp)                     # 4-byte Folded Reload
	sw	a0, 392(t0)
	lw	a0, 900(sp)                     # 4-byte Folded Reload
	sw	a0, 388(t0)
	lw	a0, 904(sp)                     # 4-byte Folded Reload
	sw	a0, 384(t0)
	lw	a0, 908(sp)                     # 4-byte Folded Reload
	sw	a0, 380(t0)
	lw	a0, 912(sp)                     # 4-byte Folded Reload
	sw	a0, 376(t0)
	lw	a0, 916(sp)                     # 4-byte Folded Reload
	sw	a0, 372(t0)
	lw	a0, 920(sp)                     # 4-byte Folded Reload
	sw	a0, 368(t0)
	lw	a0, 924(sp)                     # 4-byte Folded Reload
	sw	a0, 364(t0)
	lw	a0, 928(sp)                     # 4-byte Folded Reload
	sw	a0, 360(t0)
	lw	a0, 932(sp)                     # 4-byte Folded Reload
	sw	a0, 356(t0)
	lw	a0, 936(sp)                     # 4-byte Folded Reload
	sw	a0, 352(t0)
	lw	a0, 940(sp)                     # 4-byte Folded Reload
	sw	a0, 348(t0)
	lw	a0, 944(sp)                     # 4-byte Folded Reload
	sw	a0, 344(t0)
	lw	a0, 948(sp)                     # 4-byte Folded Reload
	sw	a0, 340(t0)
	lw	a0, 952(sp)                     # 4-byte Folded Reload
	sw	a0, 336(t0)
	lw	a0, 956(sp)                     # 4-byte Folded Reload
	sw	a0, 332(t0)
	lw	a0, 960(sp)                     # 4-byte Folded Reload
	sw	a0, 328(t0)
	lw	a0, 964(sp)                     # 4-byte Folded Reload
	sw	a0, 324(t0)
	lw	a0, 968(sp)                     # 4-byte Folded Reload
	sw	a0, 320(t0)
	lw	a0, 972(sp)                     # 4-byte Folded Reload
	sw	a0, 316(t0)
	lw	a0, 976(sp)                     # 4-byte Folded Reload
	sw	a0, 312(t0)
	lw	a0, 980(sp)                     # 4-byte Folded Reload
	sw	a0, 308(t0)
	lw	a0, 984(sp)                     # 4-byte Folded Reload
	sw	a0, 304(t0)
	lw	a0, 988(sp)                     # 4-byte Folded Reload
	sw	a0, 300(t0)
	lw	a0, 992(sp)                     # 4-byte Folded Reload
	sw	a0, 296(t0)
	lw	a0, 996(sp)                     # 4-byte Folded Reload
	sw	a0, 292(t0)
	lw	a0, 1000(sp)                    # 4-byte Folded Reload
	sw	a0, 288(t0)
	lw	a0, 1004(sp)                    # 4-byte Folded Reload
	sw	a0, 284(t0)
	lw	a0, 1008(sp)                    # 4-byte Folded Reload
	sw	a0, 280(t0)
	lw	a0, 1012(sp)                    # 4-byte Folded Reload
	sw	a0, 276(t0)
	lw	a0, 1016(sp)                    # 4-byte Folded Reload
	sw	a0, 272(t0)
	lw	a0, 1020(sp)                    # 4-byte Folded Reload
	sw	a0, 268(t0)
	lw	a0, 1024(sp)                    # 4-byte Folded Reload
	sw	a0, 264(t0)
	lw	a0, 1028(sp)                    # 4-byte Folded Reload
	sw	a0, 260(t0)
	lw	a0, 1032(sp)                    # 4-byte Folded Reload
	sw	a0, 256(t0)
	lw	a0, 1036(sp)                    # 4-byte Folded Reload
	sw	a0, 252(t0)
	lw	a0, 1040(sp)                    # 4-byte Folded Reload
	sw	a0, 248(t0)
	lw	a0, 1044(sp)                    # 4-byte Folded Reload
	sw	a0, 244(t0)
	lw	a0, 1048(sp)                    # 4-byte Folded Reload
	sw	a0, 240(t0)
	lw	a0, 1052(sp)                    # 4-byte Folded Reload
	sw	a0, 236(t0)
	lw	a0, 1056(sp)                    # 4-byte Folded Reload
	sw	a0, 232(t0)
	lw	a0, 1060(sp)                    # 4-byte Folded Reload
	sw	a0, 228(t0)
	lw	a0, 1064(sp)                    # 4-byte Folded Reload
	sw	a0, 224(t0)
	lw	a0, 1068(sp)                    # 4-byte Folded Reload
	sw	a0, 220(t0)
	lw	a0, 1072(sp)                    # 4-byte Folded Reload
	sw	a0, 216(t0)
	lw	a0, 1076(sp)                    # 4-byte Folded Reload
	sw	a0, 212(t0)
	lw	a0, 1080(sp)                    # 4-byte Folded Reload
	sw	a0, 208(t0)
	lw	a0, 1084(sp)                    # 4-byte Folded Reload
	sw	a0, 204(t0)
	lw	a0, 1088(sp)                    # 4-byte Folded Reload
	sw	a0, 200(t0)
	lw	a0, 1092(sp)                    # 4-byte Folded Reload
	sw	a0, 196(t0)
	lw	a0, 1096(sp)                    # 4-byte Folded Reload
	sw	a0, 192(t0)
	lw	a0, 1100(sp)                    # 4-byte Folded Reload
	sw	a0, 188(t0)
	lw	a0, 1104(sp)                    # 4-byte Folded Reload
	sw	a0, 184(t0)
	lw	a0, 1108(sp)                    # 4-byte Folded Reload
	sw	a0, 180(t0)
	lw	a0, 1112(sp)                    # 4-byte Folded Reload
	sw	a0, 176(t0)
	lw	a0, 1116(sp)                    # 4-byte Folded Reload
	sw	a0, 172(t0)
	lw	a0, 1120(sp)                    # 4-byte Folded Reload
	sw	a0, 168(t0)
	lw	a0, 1124(sp)                    # 4-byte Folded Reload
	sw	a0, 164(t0)
	lw	a0, 1128(sp)                    # 4-byte Folded Reload
	sw	a0, 160(t0)
	lw	a0, 1132(sp)                    # 4-byte Folded Reload
	sw	a0, 156(t0)
	lw	a0, 1136(sp)                    # 4-byte Folded Reload
	sw	a0, 152(t0)
	lw	a0, 1140(sp)                    # 4-byte Folded Reload
	sw	a0, 148(t0)
	lw	a0, 1144(sp)                    # 4-byte Folded Reload
	sw	a0, 144(t0)
	lw	a0, 1148(sp)                    # 4-byte Folded Reload
	sw	a0, 140(t0)
	lw	a0, 1152(sp)                    # 4-byte Folded Reload
	sw	a0, 136(t0)
	lw	a0, 1156(sp)                    # 4-byte Folded Reload
	sw	a0, 132(t0)
	lw	a0, 1160(sp)                    # 4-byte Folded Reload
	sw	a0, 128(t0)
	lw	a0, 1164(sp)                    # 4-byte Folded Reload
	sw	a0, 124(t0)
	lw	a0, 1168(sp)                    # 4-byte Folded Reload
	sw	a0, 120(t0)
	lw	a0, 1172(sp)                    # 4-byte Folded Reload
	sw	a0, 116(t0)
	lw	a0, 1176(sp)                    # 4-byte Folded Reload
	sw	a0, 112(t0)
	lw	a0, 1180(sp)                    # 4-byte Folded Reload
	sw	a0, 108(t0)
	lw	a0, 1184(sp)                    # 4-byte Folded Reload
	sw	a0, 104(t0)
	lw	a0, 1188(sp)                    # 4-byte Folded Reload
	sw	a0, 100(t0)
	lw	a0, 1192(sp)                    # 4-byte Folded Reload
	sw	a0, 96(t0)
	lw	a0, 1196(sp)                    # 4-byte Folded Reload
	sw	a0, 92(t0)
	lw	a0, 1200(sp)                    # 4-byte Folded Reload
	sw	a0, 88(t0)
	lw	a0, 1204(sp)                    # 4-byte Folded Reload
	sw	a0, 84(t0)
	lw	a0, 1208(sp)                    # 4-byte Folded Reload
	sw	a0, 80(t0)
	lw	a0, 1212(sp)                    # 4-byte Folded Reload
	sw	ra, 76(t0)
	sw	s11, 72(t0)
	sw	s10, 68(t0)
	sw	s9, 64(t0)
	sw	s8, 60(t0)
	sw	s7, 56(t0)
	sw	s6, 52(t0)
	sw	s5, 48(t0)
	sw	s4, 44(t0)
	sw	s3, 40(t0)
	sw	s2, 36(t0)
	sw	s1, 32(t0)
	sw	s0, 28(t0)
	sw	t6, 24(t0)
	sw	t5, 20(t0)
	sw	t4, 16(t0)
	sw	t3, 12(t0)
	sw	t2, 8(t0)
	sw	t1, 4(t0)
	sw	a0, 0(t0)
	li	a0, 127
	call	conslist@plt
	lw	a0, 0(a0)
	lui	a1, %hi(global_char_table)
	sw	a0, %lo(global_char_table)(a1)
	call	noconv@plt
	lui	a0, %hi(const_136)
	addi	a0, a0, %lo(const_136)
	lui	a1, %hi(a)
	sw	a1, 1220(sp)                    # 4-byte Folded Spill
	sw	a0, %lo(a)(a1)
	lui	a1, %hi(const_137)
	addi	a1, a1, %lo(const_137)
	lui	a2, %hi(b)
	sw	a1, %lo(b)(a2)
	lui	a2, %hi(const_138)
	addi	a2, a2, %lo(const_138)
	lui	a3, %hi(c)
	sw	a3, 1216(sp)                    # 4-byte Folded Spill
	sw	a2, %lo(c)(a3)
	call	cat2@plt
	call	print@plt
	lw	a1, 1216(sp)                    # 4-byte Folded Reload
	lui	a0, %hi(const_139)
	addi	a0, a0, %lo(const_139)
	lui	a2, %hi(ptr_const_139)
	sw	a0, %lo(ptr_const_139)(a2)
	lw	a1, %lo(c)(a1)
	call	cat2@plt
	call	print@plt
	lw	a2, 1216(sp)                    # 4-byte Folded Reload
	lw	a0, 1220(sp)                    # 4-byte Folded Reload
	lw	a0, %lo(a)(a0)
	lui	a1, %hi(const_140)
	addi	a1, a1, %lo(const_140)
	lui	a3, %hi(ptr_const_140)
	sw	a1, %lo(ptr_const_140)(a3)
	lw	a2, %lo(c)(a2)
	call	cat3@plt
	call	print@plt
	lw	a0, 1220(sp)                    # 4-byte Folded Reload
	lw	a0, %lo(a)(a0)
	call	($len)@plt
	call	makeint@plt
	call	print@plt
	lw	a0, 1220(sp)                    # 4-byte Folded Reload
	lw	a1, %lo(a)(a0)
	mv	a0, a1
	call	cat2@plt
	call	($len)@plt
	call	makeint@plt
	call	print@plt
	lui	a0, %hi(const_141)
	addi	a0, a0, %lo(const_141)
	lui	a1, %hi(ptr_const_141)
	sw	a0, %lo(ptr_const_141)(a1)
	lui	a1, %hi(const_142)
	addi	a1, a1, %lo(const_142)
	lui	a2, %hi(ptr_const_142)
	sw	a1, %lo(ptr_const_142)(a2)
	call	cat2@plt
	call	($len)@plt
	call	makeint@plt
	call	print@plt
	#APP
	li	a0, 0
	li	a7, 93	#exit system call
	ecall	

	#NO_APP
	lw	ra, 1276(sp)                    # 4-byte Folded Reload
	lw	s0, 1272(sp)                    # 4-byte Folded Reload
	lw	s1, 1268(sp)                    # 4-byte Folded Reload
	lw	s2, 1264(sp)                    # 4-byte Folded Reload
	lw	s3, 1260(sp)                    # 4-byte Folded Reload
	lw	s4, 1256(sp)                    # 4-byte Folded Reload
	lw	s5, 1252(sp)                    # 4-byte Folded Reload
	lw	s6, 1248(sp)                    # 4-byte Folded Reload
	lw	s7, 1244(sp)                    # 4-byte Folded Reload
	lw	s8, 1240(sp)                    # 4-byte Folded Reload
	lw	s9, 1236(sp)                    # 4-byte Folded Reload
	lw	s10, 1232(sp)                   # 4-byte Folded Reload
	lw	s11, 1228(sp)                   # 4-byte Folded Reload
	addi	sp, sp, 1280
	ret
.Lfunc_end1:
	.size	main, .Lfunc_end1-main
	.cfi_endproc
                                        # -- End function
	.globl	cat2                            # -- Begin function cat2
	.p2align	2
	.type	cat2,@function
cat2:                                   # @cat2
	.cfi_startproc
# %bb.0:                                # %label2
	addi	sp, sp, -16
	.cfi_def_cfa_offset 16
	sw	ra, 12(sp)                      # 4-byte Folded Spill
	.cfi_offset ra, -4
	sw	a0, 8(sp)
	sw	a1, 4(sp)
	call	strcat@plt
	lw	ra, 12(sp)                      # 4-byte Folded Reload
	addi	sp, sp, 16
	ret
.Lfunc_end2:
	.size	cat2, .Lfunc_end2-cat2
	.cfi_endproc
                                        # -- End function
	.globl	cat3                            # -- Begin function cat3
	.p2align	2
	.type	cat3,@function
cat3:                                   # @cat3
	.cfi_startproc
# %bb.0:                                # %label3
	addi	sp, sp, -16
	.cfi_def_cfa_offset 16
	sw	ra, 12(sp)                      # 4-byte Folded Spill
	.cfi_offset ra, -4
	sw	a0, 8(sp)
	sw	a1, 4(sp)
	sw	a2, 0(sp)
	call	strcat@plt
	lw	a1, 0(sp)
	call	strcat@plt
	lw	ra, 12(sp)                      # 4-byte Folded Reload
	addi	sp, sp, 16
	ret
.Lfunc_end3:
	.size	cat3, .Lfunc_end3-cat3
	.cfi_endproc
                                        # -- End function
	.type	$object$prototype,@object       # @"$object$prototype"
	.data
	.globl	$object$prototype
	.p2align	3
$object$prototype:
	.word	0                               # 0x0
	.word	3                               # 0x3
	.word	($object$dispatchTable)
	.size	$object$prototype, 12

	.type	$object$dispatchTable,@object   # @"$object$dispatchTable"
	.section	.sdata,"aw",@progbits
	.globl	$object$dispatchTable
	.p2align	3
$object$dispatchTable:
	.word	($object.__init__)
	.size	$object$dispatchTable, 4

	.type	$int$prototype,@object          # @"$int$prototype"
	.data
	.globl	$int$prototype
	.p2align	3
$int$prototype:
	.word	1                               # 0x1
	.word	4                               # 0x4
	.word	($int$dispatchTable)
	.word	0                               # 0x0
	.size	$int$prototype, 16

	.type	$int$dispatchTable,@object      # @"$int$dispatchTable"
	.section	.sdata,"aw",@progbits
	.globl	$int$dispatchTable
	.p2align	3
$int$dispatchTable:
	.word	($object.__init__)
	.size	$int$dispatchTable, 4

	.type	$bool$prototype,@object         # @"$bool$prototype"
	.data
	.globl	$bool$prototype
	.p2align	3
$bool$prototype:
	.word	2                               # 0x2
	.word	4                               # 0x4
	.word	($bool$dispatchTable)
	.byte	0                               # 0x0
	.zero	3
	.size	$bool$prototype, 16

	.type	$bool$dispatchTable,@object     # @"$bool$dispatchTable"
	.section	.sdata,"aw",@progbits
	.globl	$bool$dispatchTable
	.p2align	3
$bool$dispatchTable:
	.word	($object.__init__)
	.size	$bool$dispatchTable, 4

	.type	$str$prototype,@object          # @"$str$prototype"
	.data
	.globl	$str$prototype
	.p2align	4
$str$prototype:
	.word	3                               # 0x3
	.word	5                               # 0x5
	.word	($str$dispatchTable)
	.word	0                               # 0x0
	.word	0
	.size	$str$prototype, 20

	.type	$str$dispatchTable,@object      # @"$str$dispatchTable"
	.section	.sdata,"aw",@progbits
	.globl	$str$dispatchTable
	.p2align	3
$str$dispatchTable:
	.word	($object.__init__)
	.size	$str$dispatchTable, 4

	.type	$.list$prototype,@object        # @"$.list$prototype"
	.data
	.globl	$.list$prototype
	.p2align	4
$.list$prototype:
	.word	4294967295                      # 0xffffffff
	.word	5                               # 0x5
	.zero	4
	.word	0                               # 0x0
	.word	0
	.size	$.list$prototype, 20

	.type	const_9,@object                 # @const_9
	.globl	const_9
	.p2align	4
const_9:
	.word	3                               # 0x3
	.word	5                               # 0x5
	.word	($str$dispatchTable)
	.word	1                               # 0x1
	.word	.Lstr.const_9
	.size	const_9, 20

	.type	.Lstr.const_9,@object           # @str.const_9
	.section	.sbss,"aw",@nobits
.Lstr.const_9:
	.zero	2
	.size	.Lstr.const_9, 2

	.type	char_list_const9,@object        # @char_list_const9
	.globl	char_list_const9
	.p2align	2
char_list_const9:
	.word	0
	.size	char_list_const9, 4

	.type	const_10,@object                # @const_10
	.data
	.globl	const_10
	.p2align	4
const_10:
	.word	3                               # 0x3
	.word	5                               # 0x5
	.word	($str$dispatchTable)
	.word	1                               # 0x1
	.word	.Lstr.const_10
	.size	const_10, 20

	.type	.Lstr.const_10,@object          # @str.const_10
	.section	.sdata,"aw",@progbits
.Lstr.const_10:
	.asciz	"\001"
	.size	.Lstr.const_10, 2

	.type	char_list_const10,@object       # @char_list_const10
	.section	.sbss,"aw",@nobits
	.globl	char_list_const10
	.p2align	2
char_list_const10:
	.word	0
	.size	char_list_const10, 4

	.type	const_11,@object                # @const_11
	.data
	.globl	const_11
	.p2align	4
const_11:
	.word	3                               # 0x3
	.word	5                               # 0x5
	.word	($str$dispatchTable)
	.word	1                               # 0x1
	.word	.Lstr.const_11
	.size	const_11, 20

	.type	.Lstr.const_11,@object          # @str.const_11
	.section	.sdata,"aw",@progbits
.Lstr.const_11:
	.asciz	"\002"
	.size	.Lstr.const_11, 2

	.type	char_list_const11,@object       # @char_list_const11
	.section	.sbss,"aw",@nobits
	.globl	char_list_const11
	.p2align	2
char_list_const11:
	.word	0
	.size	char_list_const11, 4

	.type	const_12,@object                # @const_12
	.data
	.globl	const_12
	.p2align	4
const_12:
	.word	3                               # 0x3
	.word	5                               # 0x5
	.word	($str$dispatchTable)
	.word	1                               # 0x1
	.word	.Lstr.const_12
	.size	const_12, 20

	.type	.Lstr.const_12,@object          # @str.const_12
	.section	.sdata,"aw",@progbits
.Lstr.const_12:
	.asciz	"\003"
	.size	.Lstr.const_12, 2

	.type	char_list_const12,@object       # @char_list_const12
	.section	.sbss,"aw",@nobits
	.globl	char_list_const12
	.p2align	2
char_list_const12:
	.word	0
	.size	char_list_const12, 4

	.type	const_13,@object                # @const_13
	.data
	.globl	const_13
	.p2align	4
const_13:
	.word	3                               # 0x3
	.word	5                               # 0x5
	.word	($str$dispatchTable)
	.word	1                               # 0x1
	.word	.Lstr.const_13
	.size	const_13, 20

	.type	.Lstr.const_13,@object          # @str.const_13
	.section	.sdata,"aw",@progbits
.Lstr.const_13:
	.asciz	"\004"
	.size	.Lstr.const_13, 2

	.type	char_list_const13,@object       # @char_list_const13
	.section	.sbss,"aw",@nobits
	.globl	char_list_const13
	.p2align	2
char_list_const13:
	.word	0
	.size	char_list_const13, 4

	.type	const_14,@object                # @const_14
	.data
	.globl	const_14
	.p2align	4
const_14:
	.word	3                               # 0x3
	.word	5                               # 0x5
	.word	($str$dispatchTable)
	.word	1                               # 0x1
	.word	.Lstr.const_14
	.size	const_14, 20

	.type	.Lstr.const_14,@object          # @str.const_14
	.section	.sdata,"aw",@progbits
.Lstr.const_14:
	.asciz	"\005"
	.size	.Lstr.const_14, 2

	.type	char_list_const14,@object       # @char_list_const14
	.section	.sbss,"aw",@nobits
	.globl	char_list_const14
	.p2align	2
char_list_const14:
	.word	0
	.size	char_list_const14, 4

	.type	const_15,@object                # @const_15
	.data
	.globl	const_15
	.p2align	4
const_15:
	.word	3                               # 0x3
	.word	5                               # 0x5
	.word	($str$dispatchTable)
	.word	1                               # 0x1
	.word	.Lstr.const_15
	.size	const_15, 20

	.type	.Lstr.const_15,@object          # @str.const_15
	.section	.sdata,"aw",@progbits
.Lstr.const_15:
	.asciz	"\006"
	.size	.Lstr.const_15, 2

	.type	char_list_const15,@object       # @char_list_const15
	.section	.sbss,"aw",@nobits
	.globl	char_list_const15
	.p2align	2
char_list_const15:
	.word	0
	.size	char_list_const15, 4

	.type	const_16,@object                # @const_16
	.data
	.globl	const_16
	.p2align	4
const_16:
	.word	3                               # 0x3
	.word	5                               # 0x5
	.word	($str$dispatchTable)
	.word	1                               # 0x1
	.word	.Lstr.const_16
	.size	const_16, 20

	.type	.Lstr.const_16,@object          # @str.const_16
	.section	.sdata,"aw",@progbits
.Lstr.const_16:
	.asciz	"\007"
	.size	.Lstr.const_16, 2

	.type	char_list_const16,@object       # @char_list_const16
	.section	.sbss,"aw",@nobits
	.globl	char_list_const16
	.p2align	2
char_list_const16:
	.word	0
	.size	char_list_const16, 4

	.type	const_17,@object                # @const_17
	.data
	.globl	const_17
	.p2align	4
const_17:
	.word	3                               # 0x3
	.word	5                               # 0x5
	.word	($str$dispatchTable)
	.word	1                               # 0x1
	.word	.Lstr.const_17
	.size	const_17, 20

	.type	.Lstr.const_17,@object          # @str.const_17
	.section	.sdata,"aw",@progbits
.Lstr.const_17:
	.asciz	"\b"
	.size	.Lstr.const_17, 2

	.type	char_list_const17,@object       # @char_list_const17
	.section	.sbss,"aw",@nobits
	.globl	char_list_const17
	.p2align	2
char_list_const17:
	.word	0
	.size	char_list_const17, 4

	.type	const_18,@object                # @const_18
	.data
	.globl	const_18
	.p2align	4
const_18:
	.word	3                               # 0x3
	.word	5                               # 0x5
	.word	($str$dispatchTable)
	.word	1                               # 0x1
	.word	.Lstr.const_18
	.size	const_18, 20

	.type	.Lstr.const_18,@object          # @str.const_18
	.section	.sdata,"aw",@progbits
.Lstr.const_18:
	.asciz	"\t"
	.size	.Lstr.const_18, 2

	.type	char_list_const18,@object       # @char_list_const18
	.section	.sbss,"aw",@nobits
	.globl	char_list_const18
	.p2align	2
char_list_const18:
	.word	0
	.size	char_list_const18, 4

	.type	const_19,@object                # @const_19
	.data
	.globl	const_19
	.p2align	4
const_19:
	.word	3                               # 0x3
	.word	5                               # 0x5
	.word	($str$dispatchTable)
	.word	1                               # 0x1
	.word	.Lstr.const_19
	.size	const_19, 20

	.type	.Lstr.const_19,@object          # @str.const_19
	.section	.sdata,"aw",@progbits
.Lstr.const_19:
	.asciz	"\n"
	.size	.Lstr.const_19, 2

	.type	char_list_const19,@object       # @char_list_const19
	.section	.sbss,"aw",@nobits
	.globl	char_list_const19
	.p2align	2
char_list_const19:
	.word	0
	.size	char_list_const19, 4

	.type	const_20,@object                # @const_20
	.data
	.globl	const_20
	.p2align	4
const_20:
	.word	3                               # 0x3
	.word	5                               # 0x5
	.word	($str$dispatchTable)
	.word	1                               # 0x1
	.word	.Lstr.const_20
	.size	const_20, 20

	.type	.Lstr.const_20,@object          # @str.const_20
	.section	.sdata,"aw",@progbits
.Lstr.const_20:
	.asciz	"\013"
	.size	.Lstr.const_20, 2

	.type	char_list_const20,@object       # @char_list_const20
	.section	.sbss,"aw",@nobits
	.globl	char_list_const20
	.p2align	2
char_list_const20:
	.word	0
	.size	char_list_const20, 4

	.type	const_21,@object                # @const_21
	.data
	.globl	const_21
	.p2align	4
const_21:
	.word	3                               # 0x3
	.word	5                               # 0x5
	.word	($str$dispatchTable)
	.word	1                               # 0x1
	.word	.Lstr.const_21
	.size	const_21, 20

	.type	.Lstr.const_21,@object          # @str.const_21
	.section	.sdata,"aw",@progbits
.Lstr.const_21:
	.asciz	"\f"
	.size	.Lstr.const_21, 2

	.type	char_list_const21,@object       # @char_list_const21
	.section	.sbss,"aw",@nobits
	.globl	char_list_const21
	.p2align	2
char_list_const21:
	.word	0
	.size	char_list_const21, 4

	.type	const_22,@object                # @const_22
	.data
	.globl	const_22
	.p2align	4
const_22:
	.word	3                               # 0x3
	.word	5                               # 0x5
	.word	($str$dispatchTable)
	.word	1                               # 0x1
	.word	.Lstr.const_22
	.size	const_22, 20

	.type	.Lstr.const_22,@object          # @str.const_22
	.section	.sdata,"aw",@progbits
.Lstr.const_22:
	.asciz	"\r"
	.size	.Lstr.const_22, 2

	.type	char_list_const22,@object       # @char_list_const22
	.section	.sbss,"aw",@nobits
	.globl	char_list_const22
	.p2align	2
char_list_const22:
	.word	0
	.size	char_list_const22, 4

	.type	const_23,@object                # @const_23
	.data
	.globl	const_23
	.p2align	4
const_23:
	.word	3                               # 0x3
	.word	5                               # 0x5
	.word	($str$dispatchTable)
	.word	1                               # 0x1
	.word	.Lstr.const_23
	.size	const_23, 20

	.type	.Lstr.const_23,@object          # @str.const_23
	.section	.sdata,"aw",@progbits
.Lstr.const_23:
	.asciz	"\016"
	.size	.Lstr.const_23, 2

	.type	char_list_const23,@object       # @char_list_const23
	.section	.sbss,"aw",@nobits
	.globl	char_list_const23
	.p2align	2
char_list_const23:
	.word	0
	.size	char_list_const23, 4

	.type	const_24,@object                # @const_24
	.data
	.globl	const_24
	.p2align	4
const_24:
	.word	3                               # 0x3
	.word	5                               # 0x5
	.word	($str$dispatchTable)
	.word	1                               # 0x1
	.word	.Lstr.const_24
	.size	const_24, 20

	.type	.Lstr.const_24,@object          # @str.const_24
	.section	.sdata,"aw",@progbits
.Lstr.const_24:
	.asciz	"\017"
	.size	.Lstr.const_24, 2

	.type	char_list_const24,@object       # @char_list_const24
	.section	.sbss,"aw",@nobits
	.globl	char_list_const24
	.p2align	2
char_list_const24:
	.word	0
	.size	char_list_const24, 4

	.type	const_25,@object                # @const_25
	.data
	.globl	const_25
	.p2align	4
const_25:
	.word	3                               # 0x3
	.word	5                               # 0x5
	.word	($str$dispatchTable)
	.word	1                               # 0x1
	.word	.Lstr.const_25
	.size	const_25, 20

	.type	.Lstr.const_25,@object          # @str.const_25
	.section	.sdata,"aw",@progbits
.Lstr.const_25:
	.asciz	"\020"
	.size	.Lstr.const_25, 2

	.type	char_list_const25,@object       # @char_list_const25
	.section	.sbss,"aw",@nobits
	.globl	char_list_const25
	.p2align	2
char_list_const25:
	.word	0
	.size	char_list_const25, 4

	.type	const_26,@object                # @const_26
	.data
	.globl	const_26
	.p2align	4
const_26:
	.word	3                               # 0x3
	.word	5                               # 0x5
	.word	($str$dispatchTable)
	.word	1                               # 0x1
	.word	.Lstr.const_26
	.size	const_26, 20

	.type	.Lstr.const_26,@object          # @str.const_26
	.section	.sdata,"aw",@progbits
.Lstr.const_26:
	.asciz	"\021"
	.size	.Lstr.const_26, 2

	.type	char_list_const26,@object       # @char_list_const26
	.section	.sbss,"aw",@nobits
	.globl	char_list_const26
	.p2align	2
char_list_const26:
	.word	0
	.size	char_list_const26, 4

	.type	const_27,@object                # @const_27
	.data
	.globl	const_27
	.p2align	4
const_27:
	.word	3                               # 0x3
	.word	5                               # 0x5
	.word	($str$dispatchTable)
	.word	1                               # 0x1
	.word	.Lstr.const_27
	.size	const_27, 20

	.type	.Lstr.const_27,@object          # @str.const_27
	.section	.sdata,"aw",@progbits
.Lstr.const_27:
	.asciz	"\022"
	.size	.Lstr.const_27, 2

	.type	char_list_const27,@object       # @char_list_const27
	.section	.sbss,"aw",@nobits
	.globl	char_list_const27
	.p2align	2
char_list_const27:
	.word	0
	.size	char_list_const27, 4

	.type	const_28,@object                # @const_28
	.data
	.globl	const_28
	.p2align	4
const_28:
	.word	3                               # 0x3
	.word	5                               # 0x5
	.word	($str$dispatchTable)
	.word	1                               # 0x1
	.word	.Lstr.const_28
	.size	const_28, 20

	.type	.Lstr.const_28,@object          # @str.const_28
	.section	.sdata,"aw",@progbits
.Lstr.const_28:
	.asciz	"\023"
	.size	.Lstr.const_28, 2

	.type	char_list_const28,@object       # @char_list_const28
	.section	.sbss,"aw",@nobits
	.globl	char_list_const28
	.p2align	2
char_list_const28:
	.word	0
	.size	char_list_const28, 4

	.type	const_29,@object                # @const_29
	.data
	.globl	const_29
	.p2align	4
const_29:
	.word	3                               # 0x3
	.word	5                               # 0x5
	.word	($str$dispatchTable)
	.word	1                               # 0x1
	.word	.Lstr.const_29
	.size	const_29, 20

	.type	.Lstr.const_29,@object          # @str.const_29
	.section	.sdata,"aw",@progbits
.Lstr.const_29:
	.asciz	"\024"
	.size	.Lstr.const_29, 2

	.type	char_list_const29,@object       # @char_list_const29
	.section	.sbss,"aw",@nobits
	.globl	char_list_const29
	.p2align	2
char_list_const29:
	.word	0
	.size	char_list_const29, 4

	.type	const_30,@object                # @const_30
	.data
	.globl	const_30
	.p2align	4
const_30:
	.word	3                               # 0x3
	.word	5                               # 0x5
	.word	($str$dispatchTable)
	.word	1                               # 0x1
	.word	.Lstr.const_30
	.size	const_30, 20

	.type	.Lstr.const_30,@object          # @str.const_30
	.section	.sdata,"aw",@progbits
.Lstr.const_30:
	.asciz	"\025"
	.size	.Lstr.const_30, 2

	.type	char_list_const30,@object       # @char_list_const30
	.section	.sbss,"aw",@nobits
	.globl	char_list_const30
	.p2align	2
char_list_const30:
	.word	0
	.size	char_list_const30, 4

	.type	const_31,@object                # @const_31
	.data
	.globl	const_31
	.p2align	4
const_31:
	.word	3                               # 0x3
	.word	5                               # 0x5
	.word	($str$dispatchTable)
	.word	1                               # 0x1
	.word	.Lstr.const_31
	.size	const_31, 20

	.type	.Lstr.const_31,@object          # @str.const_31
	.section	.sdata,"aw",@progbits
.Lstr.const_31:
	.asciz	"\026"
	.size	.Lstr.const_31, 2

	.type	char_list_const31,@object       # @char_list_const31
	.section	.sbss,"aw",@nobits
	.globl	char_list_const31
	.p2align	2
char_list_const31:
	.word	0
	.size	char_list_const31, 4

	.type	const_32,@object                # @const_32
	.data
	.globl	const_32
	.p2align	4
const_32:
	.word	3                               # 0x3
	.word	5                               # 0x5
	.word	($str$dispatchTable)
	.word	1                               # 0x1
	.word	.Lstr.const_32
	.size	const_32, 20

	.type	.Lstr.const_32,@object          # @str.const_32
	.section	.sdata,"aw",@progbits
.Lstr.const_32:
	.asciz	"\027"
	.size	.Lstr.const_32, 2

	.type	char_list_const32,@object       # @char_list_const32
	.section	.sbss,"aw",@nobits
	.globl	char_list_const32
	.p2align	2
char_list_const32:
	.word	0
	.size	char_list_const32, 4

	.type	const_33,@object                # @const_33
	.data
	.globl	const_33
	.p2align	4
const_33:
	.word	3                               # 0x3
	.word	5                               # 0x5
	.word	($str$dispatchTable)
	.word	1                               # 0x1
	.word	.Lstr.const_33
	.size	const_33, 20

	.type	.Lstr.const_33,@object          # @str.const_33
	.section	.sdata,"aw",@progbits
.Lstr.const_33:
	.asciz	"\030"
	.size	.Lstr.const_33, 2

	.type	char_list_const33,@object       # @char_list_const33
	.section	.sbss,"aw",@nobits
	.globl	char_list_const33
	.p2align	2
char_list_const33:
	.word	0
	.size	char_list_const33, 4

	.type	const_34,@object                # @const_34
	.data
	.globl	const_34
	.p2align	4
const_34:
	.word	3                               # 0x3
	.word	5                               # 0x5
	.word	($str$dispatchTable)
	.word	1                               # 0x1
	.word	.Lstr.const_34
	.size	const_34, 20

	.type	.Lstr.const_34,@object          # @str.const_34
	.section	.sdata,"aw",@progbits
.Lstr.const_34:
	.asciz	"\031"
	.size	.Lstr.const_34, 2

	.type	char_list_const34,@object       # @char_list_const34
	.section	.sbss,"aw",@nobits
	.globl	char_list_const34
	.p2align	2
char_list_const34:
	.word	0
	.size	char_list_const34, 4

	.type	const_35,@object                # @const_35
	.data
	.globl	const_35
	.p2align	4
const_35:
	.word	3                               # 0x3
	.word	5                               # 0x5
	.word	($str$dispatchTable)
	.word	1                               # 0x1
	.word	.Lstr.const_35
	.size	const_35, 20

	.type	.Lstr.const_35,@object          # @str.const_35
	.section	.sdata,"aw",@progbits
.Lstr.const_35:
	.asciz	"\032"
	.size	.Lstr.const_35, 2

	.type	char_list_const35,@object       # @char_list_const35
	.section	.sbss,"aw",@nobits
	.globl	char_list_const35
	.p2align	2
char_list_const35:
	.word	0
	.size	char_list_const35, 4

	.type	const_36,@object                # @const_36
	.data
	.globl	const_36
	.p2align	4
const_36:
	.word	3                               # 0x3
	.word	5                               # 0x5
	.word	($str$dispatchTable)
	.word	1                               # 0x1
	.word	.Lstr.const_36
	.size	const_36, 20

	.type	.Lstr.const_36,@object          # @str.const_36
	.section	.sdata,"aw",@progbits
.Lstr.const_36:
	.asciz	"\033"
	.size	.Lstr.const_36, 2

	.type	char_list_const36,@object       # @char_list_const36
	.section	.sbss,"aw",@nobits
	.globl	char_list_const36
	.p2align	2
char_list_const36:
	.word	0
	.size	char_list_const36, 4

	.type	const_37,@object                # @const_37
	.data
	.globl	const_37
	.p2align	4
const_37:
	.word	3                               # 0x3
	.word	5                               # 0x5
	.word	($str$dispatchTable)
	.word	1                               # 0x1
	.word	.Lstr.const_37
	.size	const_37, 20

	.type	.Lstr.const_37,@object          # @str.const_37
	.section	.sdata,"aw",@progbits
.Lstr.const_37:
	.asciz	"\034"
	.size	.Lstr.const_37, 2

	.type	char_list_const37,@object       # @char_list_const37
	.section	.sbss,"aw",@nobits
	.globl	char_list_const37
	.p2align	2
char_list_const37:
	.word	0
	.size	char_list_const37, 4

	.type	const_38,@object                # @const_38
	.data
	.globl	const_38
	.p2align	4
const_38:
	.word	3                               # 0x3
	.word	5                               # 0x5
	.word	($str$dispatchTable)
	.word	1                               # 0x1
	.word	.Lstr.const_38
	.size	const_38, 20

	.type	.Lstr.const_38,@object          # @str.const_38
	.section	.sdata,"aw",@progbits
.Lstr.const_38:
	.asciz	"\035"
	.size	.Lstr.const_38, 2

	.type	char_list_const38,@object       # @char_list_const38
	.section	.sbss,"aw",@nobits
	.globl	char_list_const38
	.p2align	2
char_list_const38:
	.word	0
	.size	char_list_const38, 4

	.type	const_39,@object                # @const_39
	.data
	.globl	const_39
	.p2align	4
const_39:
	.word	3                               # 0x3
	.word	5                               # 0x5
	.word	($str$dispatchTable)
	.word	1                               # 0x1
	.word	.Lstr.const_39
	.size	const_39, 20

	.type	.Lstr.const_39,@object          # @str.const_39
	.section	.sdata,"aw",@progbits
.Lstr.const_39:
	.asciz	"\036"
	.size	.Lstr.const_39, 2

	.type	char_list_const39,@object       # @char_list_const39
	.section	.sbss,"aw",@nobits
	.globl	char_list_const39
	.p2align	2
char_list_const39:
	.word	0
	.size	char_list_const39, 4

	.type	const_40,@object                # @const_40
	.data
	.globl	const_40
	.p2align	4
const_40:
	.word	3                               # 0x3
	.word	5                               # 0x5
	.word	($str$dispatchTable)
	.word	1                               # 0x1
	.word	.Lstr.const_40
	.size	const_40, 20

	.type	.Lstr.const_40,@object          # @str.const_40
	.section	.sdata,"aw",@progbits
.Lstr.const_40:
	.asciz	"\037"
	.size	.Lstr.const_40, 2

	.type	char_list_const40,@object       # @char_list_const40
	.section	.sbss,"aw",@nobits
	.globl	char_list_const40
	.p2align	2
char_list_const40:
	.word	0
	.size	char_list_const40, 4

	.type	const_41,@object                # @const_41
	.data
	.globl	const_41
	.p2align	4
const_41:
	.word	3                               # 0x3
	.word	5                               # 0x5
	.word	($str$dispatchTable)
	.word	1                               # 0x1
	.word	.Lstr.const_41
	.size	const_41, 20

	.type	.Lstr.const_41,@object          # @str.const_41
	.section	.sdata,"aw",@progbits
.Lstr.const_41:
	.asciz	" "
	.size	.Lstr.const_41, 2

	.type	char_list_const41,@object       # @char_list_const41
	.section	.sbss,"aw",@nobits
	.globl	char_list_const41
	.p2align	2
char_list_const41:
	.word	0
	.size	char_list_const41, 4

	.type	const_42,@object                # @const_42
	.data
	.globl	const_42
	.p2align	4
const_42:
	.word	3                               # 0x3
	.word	5                               # 0x5
	.word	($str$dispatchTable)
	.word	1                               # 0x1
	.word	.Lstr.const_42
	.size	const_42, 20

	.type	.Lstr.const_42,@object          # @str.const_42
	.section	.sdata,"aw",@progbits
.Lstr.const_42:
	.asciz	"!"
	.size	.Lstr.const_42, 2

	.type	char_list_const42,@object       # @char_list_const42
	.section	.sbss,"aw",@nobits
	.globl	char_list_const42
	.p2align	2
char_list_const42:
	.word	0
	.size	char_list_const42, 4

	.type	const_43,@object                # @const_43
	.data
	.globl	const_43
	.p2align	4
const_43:
	.word	3                               # 0x3
	.word	5                               # 0x5
	.word	($str$dispatchTable)
	.word	1                               # 0x1
	.word	.Lstr.const_43
	.size	const_43, 20

	.type	.Lstr.const_43,@object          # @str.const_43
	.section	.sdata,"aw",@progbits
.Lstr.const_43:
	.asciz	"\""
	.size	.Lstr.const_43, 2

	.type	char_list_const43,@object       # @char_list_const43
	.section	.sbss,"aw",@nobits
	.globl	char_list_const43
	.p2align	2
char_list_const43:
	.word	0
	.size	char_list_const43, 4

	.type	const_44,@object                # @const_44
	.data
	.globl	const_44
	.p2align	4
const_44:
	.word	3                               # 0x3
	.word	5                               # 0x5
	.word	($str$dispatchTable)
	.word	1                               # 0x1
	.word	.Lstr.const_44
	.size	const_44, 20

	.type	.Lstr.const_44,@object          # @str.const_44
	.section	.sdata,"aw",@progbits
.Lstr.const_44:
	.asciz	"#"
	.size	.Lstr.const_44, 2

	.type	char_list_const44,@object       # @char_list_const44
	.section	.sbss,"aw",@nobits
	.globl	char_list_const44
	.p2align	2
char_list_const44:
	.word	0
	.size	char_list_const44, 4

	.type	const_45,@object                # @const_45
	.data
	.globl	const_45
	.p2align	4
const_45:
	.word	3                               # 0x3
	.word	5                               # 0x5
	.word	($str$dispatchTable)
	.word	1                               # 0x1
	.word	.Lstr.const_45
	.size	const_45, 20

	.type	.Lstr.const_45,@object          # @str.const_45
	.section	.sdata,"aw",@progbits
.Lstr.const_45:
	.asciz	"$"
	.size	.Lstr.const_45, 2

	.type	char_list_const45,@object       # @char_list_const45
	.section	.sbss,"aw",@nobits
	.globl	char_list_const45
	.p2align	2
char_list_const45:
	.word	0
	.size	char_list_const45, 4

	.type	const_46,@object                # @const_46
	.data
	.globl	const_46
	.p2align	4
const_46:
	.word	3                               # 0x3
	.word	5                               # 0x5
	.word	($str$dispatchTable)
	.word	1                               # 0x1
	.word	.Lstr.const_46
	.size	const_46, 20

	.type	.Lstr.const_46,@object          # @str.const_46
	.section	.sdata,"aw",@progbits
.Lstr.const_46:
	.asciz	"%"
	.size	.Lstr.const_46, 2

	.type	char_list_const46,@object       # @char_list_const46
	.section	.sbss,"aw",@nobits
	.globl	char_list_const46
	.p2align	2
char_list_const46:
	.word	0
	.size	char_list_const46, 4

	.type	const_47,@object                # @const_47
	.data
	.globl	const_47
	.p2align	4
const_47:
	.word	3                               # 0x3
	.word	5                               # 0x5
	.word	($str$dispatchTable)
	.word	1                               # 0x1
	.word	.Lstr.const_47
	.size	const_47, 20

	.type	.Lstr.const_47,@object          # @str.const_47
	.section	.sdata,"aw",@progbits
.Lstr.const_47:
	.asciz	"&"
	.size	.Lstr.const_47, 2

	.type	char_list_const47,@object       # @char_list_const47
	.section	.sbss,"aw",@nobits
	.globl	char_list_const47
	.p2align	2
char_list_const47:
	.word	0
	.size	char_list_const47, 4

	.type	const_48,@object                # @const_48
	.data
	.globl	const_48
	.p2align	4
const_48:
	.word	3                               # 0x3
	.word	5                               # 0x5
	.word	($str$dispatchTable)
	.word	1                               # 0x1
	.word	.Lstr.const_48
	.size	const_48, 20

	.type	.Lstr.const_48,@object          # @str.const_48
	.section	.sdata,"aw",@progbits
.Lstr.const_48:
	.asciz	"'"
	.size	.Lstr.const_48, 2

	.type	char_list_const48,@object       # @char_list_const48
	.section	.sbss,"aw",@nobits
	.globl	char_list_const48
	.p2align	2
char_list_const48:
	.word	0
	.size	char_list_const48, 4

	.type	const_49,@object                # @const_49
	.data
	.globl	const_49
	.p2align	4
const_49:
	.word	3                               # 0x3
	.word	5                               # 0x5
	.word	($str$dispatchTable)
	.word	1                               # 0x1
	.word	.Lstr.const_49
	.size	const_49, 20

	.type	.Lstr.const_49,@object          # @str.const_49
	.section	.sdata,"aw",@progbits
.Lstr.const_49:
	.asciz	"("
	.size	.Lstr.const_49, 2

	.type	char_list_const49,@object       # @char_list_const49
	.section	.sbss,"aw",@nobits
	.globl	char_list_const49
	.p2align	2
char_list_const49:
	.word	0
	.size	char_list_const49, 4

	.type	const_50,@object                # @const_50
	.data
	.globl	const_50
	.p2align	4
const_50:
	.word	3                               # 0x3
	.word	5                               # 0x5
	.word	($str$dispatchTable)
	.word	1                               # 0x1
	.word	.Lstr.const_50
	.size	const_50, 20

	.type	.Lstr.const_50,@object          # @str.const_50
	.section	.sdata,"aw",@progbits
.Lstr.const_50:
	.asciz	")"
	.size	.Lstr.const_50, 2

	.type	char_list_const50,@object       # @char_list_const50
	.section	.sbss,"aw",@nobits
	.globl	char_list_const50
	.p2align	2
char_list_const50:
	.word	0
	.size	char_list_const50, 4

	.type	const_51,@object                # @const_51
	.data
	.globl	const_51
	.p2align	4
const_51:
	.word	3                               # 0x3
	.word	5                               # 0x5
	.word	($str$dispatchTable)
	.word	1                               # 0x1
	.word	.Lstr.const_51
	.size	const_51, 20

	.type	.Lstr.const_51,@object          # @str.const_51
	.section	.sdata,"aw",@progbits
.Lstr.const_51:
	.asciz	"*"
	.size	.Lstr.const_51, 2

	.type	char_list_const51,@object       # @char_list_const51
	.section	.sbss,"aw",@nobits
	.globl	char_list_const51
	.p2align	2
char_list_const51:
	.word	0
	.size	char_list_const51, 4

	.type	const_52,@object                # @const_52
	.data
	.globl	const_52
	.p2align	4
const_52:
	.word	3                               # 0x3
	.word	5                               # 0x5
	.word	($str$dispatchTable)
	.word	1                               # 0x1
	.word	.Lstr.const_52
	.size	const_52, 20

	.type	.Lstr.const_52,@object          # @str.const_52
	.section	.sdata,"aw",@progbits
.Lstr.const_52:
	.asciz	"+"
	.size	.Lstr.const_52, 2

	.type	char_list_const52,@object       # @char_list_const52
	.section	.sbss,"aw",@nobits
	.globl	char_list_const52
	.p2align	2
char_list_const52:
	.word	0
	.size	char_list_const52, 4

	.type	const_53,@object                # @const_53
	.data
	.globl	const_53
	.p2align	4
const_53:
	.word	3                               # 0x3
	.word	5                               # 0x5
	.word	($str$dispatchTable)
	.word	1                               # 0x1
	.word	.Lstr.const_53
	.size	const_53, 20

	.type	.Lstr.const_53,@object          # @str.const_53
	.section	.sdata,"aw",@progbits
.Lstr.const_53:
	.asciz	","
	.size	.Lstr.const_53, 2

	.type	char_list_const53,@object       # @char_list_const53
	.section	.sbss,"aw",@nobits
	.globl	char_list_const53
	.p2align	2
char_list_const53:
	.word	0
	.size	char_list_const53, 4

	.type	const_54,@object                # @const_54
	.data
	.globl	const_54
	.p2align	4
const_54:
	.word	3                               # 0x3
	.word	5                               # 0x5
	.word	($str$dispatchTable)
	.word	1                               # 0x1
	.word	.Lstr.const_54
	.size	const_54, 20

	.type	.Lstr.const_54,@object          # @str.const_54
	.section	.sdata,"aw",@progbits
.Lstr.const_54:
	.asciz	"-"
	.size	.Lstr.const_54, 2

	.type	char_list_const54,@object       # @char_list_const54
	.section	.sbss,"aw",@nobits
	.globl	char_list_const54
	.p2align	2
char_list_const54:
	.word	0
	.size	char_list_const54, 4

	.type	const_55,@object                # @const_55
	.data
	.globl	const_55
	.p2align	4
const_55:
	.word	3                               # 0x3
	.word	5                               # 0x5
	.word	($str$dispatchTable)
	.word	1                               # 0x1
	.word	.Lstr.const_55
	.size	const_55, 20

	.type	.Lstr.const_55,@object          # @str.const_55
	.section	.sdata,"aw",@progbits
.Lstr.const_55:
	.asciz	"."
	.size	.Lstr.const_55, 2

	.type	char_list_const55,@object       # @char_list_const55
	.section	.sbss,"aw",@nobits
	.globl	char_list_const55
	.p2align	2
char_list_const55:
	.word	0
	.size	char_list_const55, 4

	.type	const_56,@object                # @const_56
	.data
	.globl	const_56
	.p2align	4
const_56:
	.word	3                               # 0x3
	.word	5                               # 0x5
	.word	($str$dispatchTable)
	.word	1                               # 0x1
	.word	.Lstr.const_56
	.size	const_56, 20

	.type	.Lstr.const_56,@object          # @str.const_56
	.section	.sdata,"aw",@progbits
.Lstr.const_56:
	.asciz	"/"
	.size	.Lstr.const_56, 2

	.type	char_list_const56,@object       # @char_list_const56
	.section	.sbss,"aw",@nobits
	.globl	char_list_const56
	.p2align	2
char_list_const56:
	.word	0
	.size	char_list_const56, 4

	.type	const_57,@object                # @const_57
	.data
	.globl	const_57
	.p2align	4
const_57:
	.word	3                               # 0x3
	.word	5                               # 0x5
	.word	($str$dispatchTable)
	.word	1                               # 0x1
	.word	.Lstr.const_57
	.size	const_57, 20

	.type	.Lstr.const_57,@object          # @str.const_57
	.section	.sdata,"aw",@progbits
.Lstr.const_57:
	.asciz	"0"
	.size	.Lstr.const_57, 2

	.type	char_list_const57,@object       # @char_list_const57
	.section	.sbss,"aw",@nobits
	.globl	char_list_const57
	.p2align	2
char_list_const57:
	.word	0
	.size	char_list_const57, 4

	.type	const_58,@object                # @const_58
	.data
	.globl	const_58
	.p2align	4
const_58:
	.word	3                               # 0x3
	.word	5                               # 0x5
	.word	($str$dispatchTable)
	.word	1                               # 0x1
	.word	.Lstr.const_58
	.size	const_58, 20

	.type	.Lstr.const_58,@object          # @str.const_58
	.section	.sdata,"aw",@progbits
.Lstr.const_58:
	.asciz	"1"
	.size	.Lstr.const_58, 2

	.type	char_list_const58,@object       # @char_list_const58
	.section	.sbss,"aw",@nobits
	.globl	char_list_const58
	.p2align	2
char_list_const58:
	.word	0
	.size	char_list_const58, 4

	.type	const_59,@object                # @const_59
	.data
	.globl	const_59
	.p2align	4
const_59:
	.word	3                               # 0x3
	.word	5                               # 0x5
	.word	($str$dispatchTable)
	.word	1                               # 0x1
	.word	.Lstr.const_59
	.size	const_59, 20

	.type	.Lstr.const_59,@object          # @str.const_59
	.section	.sdata,"aw",@progbits
.Lstr.const_59:
	.asciz	"2"
	.size	.Lstr.const_59, 2

	.type	char_list_const59,@object       # @char_list_const59
	.section	.sbss,"aw",@nobits
	.globl	char_list_const59
	.p2align	2
char_list_const59:
	.word	0
	.size	char_list_const59, 4

	.type	const_60,@object                # @const_60
	.data
	.globl	const_60
	.p2align	4
const_60:
	.word	3                               # 0x3
	.word	5                               # 0x5
	.word	($str$dispatchTable)
	.word	1                               # 0x1
	.word	.Lstr.const_60
	.size	const_60, 20

	.type	.Lstr.const_60,@object          # @str.const_60
	.section	.sdata,"aw",@progbits
.Lstr.const_60:
	.asciz	"3"
	.size	.Lstr.const_60, 2

	.type	char_list_const60,@object       # @char_list_const60
	.section	.sbss,"aw",@nobits
	.globl	char_list_const60
	.p2align	2
char_list_const60:
	.word	0
	.size	char_list_const60, 4

	.type	const_61,@object                # @const_61
	.data
	.globl	const_61
	.p2align	4
const_61:
	.word	3                               # 0x3
	.word	5                               # 0x5
	.word	($str$dispatchTable)
	.word	1                               # 0x1
	.word	.Lstr.const_61
	.size	const_61, 20

	.type	.Lstr.const_61,@object          # @str.const_61
	.section	.sdata,"aw",@progbits
.Lstr.const_61:
	.asciz	"4"
	.size	.Lstr.const_61, 2

	.type	char_list_const61,@object       # @char_list_const61
	.section	.sbss,"aw",@nobits
	.globl	char_list_const61
	.p2align	2
char_list_const61:
	.word	0
	.size	char_list_const61, 4

	.type	const_62,@object                # @const_62
	.data
	.globl	const_62
	.p2align	4
const_62:
	.word	3                               # 0x3
	.word	5                               # 0x5
	.word	($str$dispatchTable)
	.word	1                               # 0x1
	.word	.Lstr.const_62
	.size	const_62, 20

	.type	.Lstr.const_62,@object          # @str.const_62
	.section	.sdata,"aw",@progbits
.Lstr.const_62:
	.asciz	"5"
	.size	.Lstr.const_62, 2

	.type	char_list_const62,@object       # @char_list_const62
	.section	.sbss,"aw",@nobits
	.globl	char_list_const62
	.p2align	2
char_list_const62:
	.word	0
	.size	char_list_const62, 4

	.type	const_63,@object                # @const_63
	.data
	.globl	const_63
	.p2align	4
const_63:
	.word	3                               # 0x3
	.word	5                               # 0x5
	.word	($str$dispatchTable)
	.word	1                               # 0x1
	.word	.Lstr.const_63
	.size	const_63, 20

	.type	.Lstr.const_63,@object          # @str.const_63
	.section	.sdata,"aw",@progbits
.Lstr.const_63:
	.asciz	"6"
	.size	.Lstr.const_63, 2

	.type	char_list_const63,@object       # @char_list_const63
	.section	.sbss,"aw",@nobits
	.globl	char_list_const63
	.p2align	2
char_list_const63:
	.word	0
	.size	char_list_const63, 4

	.type	const_64,@object                # @const_64
	.data
	.globl	const_64
	.p2align	4
const_64:
	.word	3                               # 0x3
	.word	5                               # 0x5
	.word	($str$dispatchTable)
	.word	1                               # 0x1
	.word	.Lstr.const_64
	.size	const_64, 20

	.type	.Lstr.const_64,@object          # @str.const_64
	.section	.sdata,"aw",@progbits
.Lstr.const_64:
	.asciz	"7"
	.size	.Lstr.const_64, 2

	.type	char_list_const64,@object       # @char_list_const64
	.section	.sbss,"aw",@nobits
	.globl	char_list_const64
	.p2align	2
char_list_const64:
	.word	0
	.size	char_list_const64, 4

	.type	const_65,@object                # @const_65
	.data
	.globl	const_65
	.p2align	4
const_65:
	.word	3                               # 0x3
	.word	5                               # 0x5
	.word	($str$dispatchTable)
	.word	1                               # 0x1
	.word	.Lstr.const_65
	.size	const_65, 20

	.type	.Lstr.const_65,@object          # @str.const_65
	.section	.sdata,"aw",@progbits
.Lstr.const_65:
	.asciz	"8"
	.size	.Lstr.const_65, 2

	.type	char_list_const65,@object       # @char_list_const65
	.section	.sbss,"aw",@nobits
	.globl	char_list_const65
	.p2align	2
char_list_const65:
	.word	0
	.size	char_list_const65, 4

	.type	const_66,@object                # @const_66
	.data
	.globl	const_66
	.p2align	4
const_66:
	.word	3                               # 0x3
	.word	5                               # 0x5
	.word	($str$dispatchTable)
	.word	1                               # 0x1
	.word	.Lstr.const_66
	.size	const_66, 20

	.type	.Lstr.const_66,@object          # @str.const_66
	.section	.sdata,"aw",@progbits
.Lstr.const_66:
	.asciz	"9"
	.size	.Lstr.const_66, 2

	.type	char_list_const66,@object       # @char_list_const66
	.section	.sbss,"aw",@nobits
	.globl	char_list_const66
	.p2align	2
char_list_const66:
	.word	0
	.size	char_list_const66, 4

	.type	const_67,@object                # @const_67
	.data
	.globl	const_67
	.p2align	4
const_67:
	.word	3                               # 0x3
	.word	5                               # 0x5
	.word	($str$dispatchTable)
	.word	1                               # 0x1
	.word	.Lstr.const_67
	.size	const_67, 20

	.type	.Lstr.const_67,@object          # @str.const_67
	.section	.sdata,"aw",@progbits
.Lstr.const_67:
	.asciz	":"
	.size	.Lstr.const_67, 2

	.type	char_list_const67,@object       # @char_list_const67
	.section	.sbss,"aw",@nobits
	.globl	char_list_const67
	.p2align	2
char_list_const67:
	.word	0
	.size	char_list_const67, 4

	.type	const_68,@object                # @const_68
	.data
	.globl	const_68
	.p2align	4
const_68:
	.word	3                               # 0x3
	.word	5                               # 0x5
	.word	($str$dispatchTable)
	.word	1                               # 0x1
	.word	.Lstr.const_68
	.size	const_68, 20

	.type	.Lstr.const_68,@object          # @str.const_68
	.section	.sdata,"aw",@progbits
.Lstr.const_68:
	.asciz	";"
	.size	.Lstr.const_68, 2

	.type	char_list_const68,@object       # @char_list_const68
	.section	.sbss,"aw",@nobits
	.globl	char_list_const68
	.p2align	2
char_list_const68:
	.word	0
	.size	char_list_const68, 4

	.type	const_69,@object                # @const_69
	.data
	.globl	const_69
	.p2align	4
const_69:
	.word	3                               # 0x3
	.word	5                               # 0x5
	.word	($str$dispatchTable)
	.word	1                               # 0x1
	.word	.Lstr.const_69
	.size	const_69, 20

	.type	.Lstr.const_69,@object          # @str.const_69
	.section	.sdata,"aw",@progbits
.Lstr.const_69:
	.asciz	"<"
	.size	.Lstr.const_69, 2

	.type	char_list_const69,@object       # @char_list_const69
	.section	.sbss,"aw",@nobits
	.globl	char_list_const69
	.p2align	2
char_list_const69:
	.word	0
	.size	char_list_const69, 4

	.type	const_70,@object                # @const_70
	.data
	.globl	const_70
	.p2align	4
const_70:
	.word	3                               # 0x3
	.word	5                               # 0x5
	.word	($str$dispatchTable)
	.word	1                               # 0x1
	.word	.Lstr.const_70
	.size	const_70, 20

	.type	.Lstr.const_70,@object          # @str.const_70
	.section	.sdata,"aw",@progbits
.Lstr.const_70:
	.asciz	"="
	.size	.Lstr.const_70, 2

	.type	char_list_const70,@object       # @char_list_const70
	.section	.sbss,"aw",@nobits
	.globl	char_list_const70
	.p2align	2
char_list_const70:
	.word	0
	.size	char_list_const70, 4

	.type	const_71,@object                # @const_71
	.data
	.globl	const_71
	.p2align	4
const_71:
	.word	3                               # 0x3
	.word	5                               # 0x5
	.word	($str$dispatchTable)
	.word	1                               # 0x1
	.word	.Lstr.const_71
	.size	const_71, 20

	.type	.Lstr.const_71,@object          # @str.const_71
	.section	.sdata,"aw",@progbits
.Lstr.const_71:
	.asciz	">"
	.size	.Lstr.const_71, 2

	.type	char_list_const71,@object       # @char_list_const71
	.section	.sbss,"aw",@nobits
	.globl	char_list_const71
	.p2align	2
char_list_const71:
	.word	0
	.size	char_list_const71, 4

	.type	const_72,@object                # @const_72
	.data
	.globl	const_72
	.p2align	4
const_72:
	.word	3                               # 0x3
	.word	5                               # 0x5
	.word	($str$dispatchTable)
	.word	1                               # 0x1
	.word	.Lstr.const_72
	.size	const_72, 20

	.type	.Lstr.const_72,@object          # @str.const_72
	.section	.sdata,"aw",@progbits
.Lstr.const_72:
	.asciz	"?"
	.size	.Lstr.const_72, 2

	.type	char_list_const72,@object       # @char_list_const72
	.section	.sbss,"aw",@nobits
	.globl	char_list_const72
	.p2align	2
char_list_const72:
	.word	0
	.size	char_list_const72, 4

	.type	const_73,@object                # @const_73
	.data
	.globl	const_73
	.p2align	4
const_73:
	.word	3                               # 0x3
	.word	5                               # 0x5
	.word	($str$dispatchTable)
	.word	1                               # 0x1
	.word	.Lstr.const_73
	.size	const_73, 20

	.type	.Lstr.const_73,@object          # @str.const_73
	.section	.sdata,"aw",@progbits
.Lstr.const_73:
	.asciz	"@"
	.size	.Lstr.const_73, 2

	.type	char_list_const73,@object       # @char_list_const73
	.section	.sbss,"aw",@nobits
	.globl	char_list_const73
	.p2align	2
char_list_const73:
	.word	0
	.size	char_list_const73, 4

	.type	const_74,@object                # @const_74
	.data
	.globl	const_74
	.p2align	4
const_74:
	.word	3                               # 0x3
	.word	5                               # 0x5
	.word	($str$dispatchTable)
	.word	1                               # 0x1
	.word	.Lstr.const_74
	.size	const_74, 20

	.type	.Lstr.const_74,@object          # @str.const_74
	.section	.sdata,"aw",@progbits
.Lstr.const_74:
	.asciz	"A"
	.size	.Lstr.const_74, 2

	.type	char_list_const74,@object       # @char_list_const74
	.section	.sbss,"aw",@nobits
	.globl	char_list_const74
	.p2align	2
char_list_const74:
	.word	0
	.size	char_list_const74, 4

	.type	const_75,@object                # @const_75
	.data
	.globl	const_75
	.p2align	4
const_75:
	.word	3                               # 0x3
	.word	5                               # 0x5
	.word	($str$dispatchTable)
	.word	1                               # 0x1
	.word	.Lstr.const_75
	.size	const_75, 20

	.type	.Lstr.const_75,@object          # @str.const_75
	.section	.sdata,"aw",@progbits
.Lstr.const_75:
	.asciz	"B"
	.size	.Lstr.const_75, 2

	.type	char_list_const75,@object       # @char_list_const75
	.section	.sbss,"aw",@nobits
	.globl	char_list_const75
	.p2align	2
char_list_const75:
	.word	0
	.size	char_list_const75, 4

	.type	const_76,@object                # @const_76
	.data
	.globl	const_76
	.p2align	4
const_76:
	.word	3                               # 0x3
	.word	5                               # 0x5
	.word	($str$dispatchTable)
	.word	1                               # 0x1
	.word	.Lstr.const_76
	.size	const_76, 20

	.type	.Lstr.const_76,@object          # @str.const_76
	.section	.sdata,"aw",@progbits
.Lstr.const_76:
	.asciz	"C"
	.size	.Lstr.const_76, 2

	.type	char_list_const76,@object       # @char_list_const76
	.section	.sbss,"aw",@nobits
	.globl	char_list_const76
	.p2align	2
char_list_const76:
	.word	0
	.size	char_list_const76, 4

	.type	const_77,@object                # @const_77
	.data
	.globl	const_77
	.p2align	4
const_77:
	.word	3                               # 0x3
	.word	5                               # 0x5
	.word	($str$dispatchTable)
	.word	1                               # 0x1
	.word	.Lstr.const_77
	.size	const_77, 20

	.type	.Lstr.const_77,@object          # @str.const_77
	.section	.sdata,"aw",@progbits
.Lstr.const_77:
	.asciz	"D"
	.size	.Lstr.const_77, 2

	.type	char_list_const77,@object       # @char_list_const77
	.section	.sbss,"aw",@nobits
	.globl	char_list_const77
	.p2align	2
char_list_const77:
	.word	0
	.size	char_list_const77, 4

	.type	const_78,@object                # @const_78
	.data
	.globl	const_78
	.p2align	4
const_78:
	.word	3                               # 0x3
	.word	5                               # 0x5
	.word	($str$dispatchTable)
	.word	1                               # 0x1
	.word	.Lstr.const_78
	.size	const_78, 20

	.type	.Lstr.const_78,@object          # @str.const_78
	.section	.sdata,"aw",@progbits
.Lstr.const_78:
	.asciz	"E"
	.size	.Lstr.const_78, 2

	.type	char_list_const78,@object       # @char_list_const78
	.section	.sbss,"aw",@nobits
	.globl	char_list_const78
	.p2align	2
char_list_const78:
	.word	0
	.size	char_list_const78, 4

	.type	const_79,@object                # @const_79
	.data
	.globl	const_79
	.p2align	4
const_79:
	.word	3                               # 0x3
	.word	5                               # 0x5
	.word	($str$dispatchTable)
	.word	1                               # 0x1
	.word	.Lstr.const_79
	.size	const_79, 20

	.type	.Lstr.const_79,@object          # @str.const_79
	.section	.sdata,"aw",@progbits
.Lstr.const_79:
	.asciz	"F"
	.size	.Lstr.const_79, 2

	.type	char_list_const79,@object       # @char_list_const79
	.section	.sbss,"aw",@nobits
	.globl	char_list_const79
	.p2align	2
char_list_const79:
	.word	0
	.size	char_list_const79, 4

	.type	const_80,@object                # @const_80
	.data
	.globl	const_80
	.p2align	4
const_80:
	.word	3                               # 0x3
	.word	5                               # 0x5
	.word	($str$dispatchTable)
	.word	1                               # 0x1
	.word	.Lstr.const_80
	.size	const_80, 20

	.type	.Lstr.const_80,@object          # @str.const_80
	.section	.sdata,"aw",@progbits
.Lstr.const_80:
	.asciz	"G"
	.size	.Lstr.const_80, 2

	.type	char_list_const80,@object       # @char_list_const80
	.section	.sbss,"aw",@nobits
	.globl	char_list_const80
	.p2align	2
char_list_const80:
	.word	0
	.size	char_list_const80, 4

	.type	const_81,@object                # @const_81
	.data
	.globl	const_81
	.p2align	4
const_81:
	.word	3                               # 0x3
	.word	5                               # 0x5
	.word	($str$dispatchTable)
	.word	1                               # 0x1
	.word	.Lstr.const_81
	.size	const_81, 20

	.type	.Lstr.const_81,@object          # @str.const_81
	.section	.sdata,"aw",@progbits
.Lstr.const_81:
	.asciz	"H"
	.size	.Lstr.const_81, 2

	.type	char_list_const81,@object       # @char_list_const81
	.section	.sbss,"aw",@nobits
	.globl	char_list_const81
	.p2align	2
char_list_const81:
	.word	0
	.size	char_list_const81, 4

	.type	const_82,@object                # @const_82
	.data
	.globl	const_82
	.p2align	4
const_82:
	.word	3                               # 0x3
	.word	5                               # 0x5
	.word	($str$dispatchTable)
	.word	1                               # 0x1
	.word	.Lstr.const_82
	.size	const_82, 20

	.type	.Lstr.const_82,@object          # @str.const_82
	.section	.sdata,"aw",@progbits
.Lstr.const_82:
	.asciz	"I"
	.size	.Lstr.const_82, 2

	.type	char_list_const82,@object       # @char_list_const82
	.section	.sbss,"aw",@nobits
	.globl	char_list_const82
	.p2align	2
char_list_const82:
	.word	0
	.size	char_list_const82, 4

	.type	const_83,@object                # @const_83
	.data
	.globl	const_83
	.p2align	4
const_83:
	.word	3                               # 0x3
	.word	5                               # 0x5
	.word	($str$dispatchTable)
	.word	1                               # 0x1
	.word	.Lstr.const_83
	.size	const_83, 20

	.type	.Lstr.const_83,@object          # @str.const_83
	.section	.sdata,"aw",@progbits
.Lstr.const_83:
	.asciz	"J"
	.size	.Lstr.const_83, 2

	.type	char_list_const83,@object       # @char_list_const83
	.section	.sbss,"aw",@nobits
	.globl	char_list_const83
	.p2align	2
char_list_const83:
	.word	0
	.size	char_list_const83, 4

	.type	const_84,@object                # @const_84
	.data
	.globl	const_84
	.p2align	4
const_84:
	.word	3                               # 0x3
	.word	5                               # 0x5
	.word	($str$dispatchTable)
	.word	1                               # 0x1
	.word	.Lstr.const_84
	.size	const_84, 20

	.type	.Lstr.const_84,@object          # @str.const_84
	.section	.sdata,"aw",@progbits
.Lstr.const_84:
	.asciz	"K"
	.size	.Lstr.const_84, 2

	.type	char_list_const84,@object       # @char_list_const84
	.section	.sbss,"aw",@nobits
	.globl	char_list_const84
	.p2align	2
char_list_const84:
	.word	0
	.size	char_list_const84, 4

	.type	const_85,@object                # @const_85
	.data
	.globl	const_85
	.p2align	4
const_85:
	.word	3                               # 0x3
	.word	5                               # 0x5
	.word	($str$dispatchTable)
	.word	1                               # 0x1
	.word	.Lstr.const_85
	.size	const_85, 20

	.type	.Lstr.const_85,@object          # @str.const_85
	.section	.sdata,"aw",@progbits
.Lstr.const_85:
	.asciz	"L"
	.size	.Lstr.const_85, 2

	.type	char_list_const85,@object       # @char_list_const85
	.section	.sbss,"aw",@nobits
	.globl	char_list_const85
	.p2align	2
char_list_const85:
	.word	0
	.size	char_list_const85, 4

	.type	const_86,@object                # @const_86
	.data
	.globl	const_86
	.p2align	4
const_86:
	.word	3                               # 0x3
	.word	5                               # 0x5
	.word	($str$dispatchTable)
	.word	1                               # 0x1
	.word	.Lstr.const_86
	.size	const_86, 20

	.type	.Lstr.const_86,@object          # @str.const_86
	.section	.sdata,"aw",@progbits
.Lstr.const_86:
	.asciz	"M"
	.size	.Lstr.const_86, 2

	.type	char_list_const86,@object       # @char_list_const86
	.section	.sbss,"aw",@nobits
	.globl	char_list_const86
	.p2align	2
char_list_const86:
	.word	0
	.size	char_list_const86, 4

	.type	const_87,@object                # @const_87
	.data
	.globl	const_87
	.p2align	4
const_87:
	.word	3                               # 0x3
	.word	5                               # 0x5
	.word	($str$dispatchTable)
	.word	1                               # 0x1
	.word	.Lstr.const_87
	.size	const_87, 20

	.type	.Lstr.const_87,@object          # @str.const_87
	.section	.sdata,"aw",@progbits
.Lstr.const_87:
	.asciz	"N"
	.size	.Lstr.const_87, 2

	.type	char_list_const87,@object       # @char_list_const87
	.section	.sbss,"aw",@nobits
	.globl	char_list_const87
	.p2align	2
char_list_const87:
	.word	0
	.size	char_list_const87, 4

	.type	const_88,@object                # @const_88
	.data
	.globl	const_88
	.p2align	4
const_88:
	.word	3                               # 0x3
	.word	5                               # 0x5
	.word	($str$dispatchTable)
	.word	1                               # 0x1
	.word	.Lstr.const_88
	.size	const_88, 20

	.type	.Lstr.const_88,@object          # @str.const_88
	.section	.sdata,"aw",@progbits
.Lstr.const_88:
	.asciz	"O"
	.size	.Lstr.const_88, 2

	.type	char_list_const88,@object       # @char_list_const88
	.section	.sbss,"aw",@nobits
	.globl	char_list_const88
	.p2align	2
char_list_const88:
	.word	0
	.size	char_list_const88, 4

	.type	const_89,@object                # @const_89
	.data
	.globl	const_89
	.p2align	4
const_89:
	.word	3                               # 0x3
	.word	5                               # 0x5
	.word	($str$dispatchTable)
	.word	1                               # 0x1
	.word	.Lstr.const_89
	.size	const_89, 20

	.type	.Lstr.const_89,@object          # @str.const_89
	.section	.sdata,"aw",@progbits
.Lstr.const_89:
	.asciz	"P"
	.size	.Lstr.const_89, 2

	.type	char_list_const89,@object       # @char_list_const89
	.section	.sbss,"aw",@nobits
	.globl	char_list_const89
	.p2align	2
char_list_const89:
	.word	0
	.size	char_list_const89, 4

	.type	const_90,@object                # @const_90
	.data
	.globl	const_90
	.p2align	4
const_90:
	.word	3                               # 0x3
	.word	5                               # 0x5
	.word	($str$dispatchTable)
	.word	1                               # 0x1
	.word	.Lstr.const_90
	.size	const_90, 20

	.type	.Lstr.const_90,@object          # @str.const_90
	.section	.sdata,"aw",@progbits
.Lstr.const_90:
	.asciz	"Q"
	.size	.Lstr.const_90, 2

	.type	char_list_const90,@object       # @char_list_const90
	.section	.sbss,"aw",@nobits
	.globl	char_list_const90
	.p2align	2
char_list_const90:
	.word	0
	.size	char_list_const90, 4

	.type	const_91,@object                # @const_91
	.data
	.globl	const_91
	.p2align	4
const_91:
	.word	3                               # 0x3
	.word	5                               # 0x5
	.word	($str$dispatchTable)
	.word	1                               # 0x1
	.word	.Lstr.const_91
	.size	const_91, 20

	.type	.Lstr.const_91,@object          # @str.const_91
	.section	.sdata,"aw",@progbits
.Lstr.const_91:
	.asciz	"R"
	.size	.Lstr.const_91, 2

	.type	char_list_const91,@object       # @char_list_const91
	.section	.sbss,"aw",@nobits
	.globl	char_list_const91
	.p2align	2
char_list_const91:
	.word	0
	.size	char_list_const91, 4

	.type	const_92,@object                # @const_92
	.data
	.globl	const_92
	.p2align	4
const_92:
	.word	3                               # 0x3
	.word	5                               # 0x5
	.word	($str$dispatchTable)
	.word	1                               # 0x1
	.word	.Lstr.const_92
	.size	const_92, 20

	.type	.Lstr.const_92,@object          # @str.const_92
	.section	.sdata,"aw",@progbits
.Lstr.const_92:
	.asciz	"S"
	.size	.Lstr.const_92, 2

	.type	char_list_const92,@object       # @char_list_const92
	.section	.sbss,"aw",@nobits
	.globl	char_list_const92
	.p2align	2
char_list_const92:
	.word	0
	.size	char_list_const92, 4

	.type	const_93,@object                # @const_93
	.data
	.globl	const_93
	.p2align	4
const_93:
	.word	3                               # 0x3
	.word	5                               # 0x5
	.word	($str$dispatchTable)
	.word	1                               # 0x1
	.word	.Lstr.const_93
	.size	const_93, 20

	.type	.Lstr.const_93,@object          # @str.const_93
	.section	.sdata,"aw",@progbits
.Lstr.const_93:
	.asciz	"T"
	.size	.Lstr.const_93, 2

	.type	char_list_const93,@object       # @char_list_const93
	.section	.sbss,"aw",@nobits
	.globl	char_list_const93
	.p2align	2
char_list_const93:
	.word	0
	.size	char_list_const93, 4

	.type	const_94,@object                # @const_94
	.data
	.globl	const_94
	.p2align	4
const_94:
	.word	3                               # 0x3
	.word	5                               # 0x5
	.word	($str$dispatchTable)
	.word	1                               # 0x1
	.word	.Lstr.const_94
	.size	const_94, 20

	.type	.Lstr.const_94,@object          # @str.const_94
	.section	.sdata,"aw",@progbits
.Lstr.const_94:
	.asciz	"U"
	.size	.Lstr.const_94, 2

	.type	char_list_const94,@object       # @char_list_const94
	.section	.sbss,"aw",@nobits
	.globl	char_list_const94
	.p2align	2
char_list_const94:
	.word	0
	.size	char_list_const94, 4

	.type	const_95,@object                # @const_95
	.data
	.globl	const_95
	.p2align	4
const_95:
	.word	3                               # 0x3
	.word	5                               # 0x5
	.word	($str$dispatchTable)
	.word	1                               # 0x1
	.word	.Lstr.const_95
	.size	const_95, 20

	.type	.Lstr.const_95,@object          # @str.const_95
	.section	.sdata,"aw",@progbits
.Lstr.const_95:
	.asciz	"V"
	.size	.Lstr.const_95, 2

	.type	char_list_const95,@object       # @char_list_const95
	.section	.sbss,"aw",@nobits
	.globl	char_list_const95
	.p2align	2
char_list_const95:
	.word	0
	.size	char_list_const95, 4

	.type	const_96,@object                # @const_96
	.data
	.globl	const_96
	.p2align	4
const_96:
	.word	3                               # 0x3
	.word	5                               # 0x5
	.word	($str$dispatchTable)
	.word	1                               # 0x1
	.word	.Lstr.const_96
	.size	const_96, 20

	.type	.Lstr.const_96,@object          # @str.const_96
	.section	.sdata,"aw",@progbits
.Lstr.const_96:
	.asciz	"W"
	.size	.Lstr.const_96, 2

	.type	char_list_const96,@object       # @char_list_const96
	.section	.sbss,"aw",@nobits
	.globl	char_list_const96
	.p2align	2
char_list_const96:
	.word	0
	.size	char_list_const96, 4

	.type	const_97,@object                # @const_97
	.data
	.globl	const_97
	.p2align	4
const_97:
	.word	3                               # 0x3
	.word	5                               # 0x5
	.word	($str$dispatchTable)
	.word	1                               # 0x1
	.word	.Lstr.const_97
	.size	const_97, 20

	.type	.Lstr.const_97,@object          # @str.const_97
	.section	.sdata,"aw",@progbits
.Lstr.const_97:
	.asciz	"X"
	.size	.Lstr.const_97, 2

	.type	char_list_const97,@object       # @char_list_const97
	.section	.sbss,"aw",@nobits
	.globl	char_list_const97
	.p2align	2
char_list_const97:
	.word	0
	.size	char_list_const97, 4

	.type	const_98,@object                # @const_98
	.data
	.globl	const_98
	.p2align	4
const_98:
	.word	3                               # 0x3
	.word	5                               # 0x5
	.word	($str$dispatchTable)
	.word	1                               # 0x1
	.word	.Lstr.const_98
	.size	const_98, 20

	.type	.Lstr.const_98,@object          # @str.const_98
	.section	.sdata,"aw",@progbits
.Lstr.const_98:
	.asciz	"Y"
	.size	.Lstr.const_98, 2

	.type	char_list_const98,@object       # @char_list_const98
	.section	.sbss,"aw",@nobits
	.globl	char_list_const98
	.p2align	2
char_list_const98:
	.word	0
	.size	char_list_const98, 4

	.type	const_99,@object                # @const_99
	.data
	.globl	const_99
	.p2align	4
const_99:
	.word	3                               # 0x3
	.word	5                               # 0x5
	.word	($str$dispatchTable)
	.word	1                               # 0x1
	.word	.Lstr.const_99
	.size	const_99, 20

	.type	.Lstr.const_99,@object          # @str.const_99
	.section	.sdata,"aw",@progbits
.Lstr.const_99:
	.asciz	"Z"
	.size	.Lstr.const_99, 2

	.type	char_list_const99,@object       # @char_list_const99
	.section	.sbss,"aw",@nobits
	.globl	char_list_const99
	.p2align	2
char_list_const99:
	.word	0
	.size	char_list_const99, 4

	.type	const_100,@object               # @const_100
	.data
	.globl	const_100
	.p2align	4
const_100:
	.word	3                               # 0x3
	.word	5                               # 0x5
	.word	($str$dispatchTable)
	.word	1                               # 0x1
	.word	.Lstr.const_100
	.size	const_100, 20

	.type	.Lstr.const_100,@object         # @str.const_100
	.section	.sdata,"aw",@progbits
.Lstr.const_100:
	.asciz	"["
	.size	.Lstr.const_100, 2

	.type	char_list_const100,@object      # @char_list_const100
	.section	.sbss,"aw",@nobits
	.globl	char_list_const100
	.p2align	2
char_list_const100:
	.word	0
	.size	char_list_const100, 4

	.type	const_101,@object               # @const_101
	.data
	.globl	const_101
	.p2align	4
const_101:
	.word	3                               # 0x3
	.word	5                               # 0x5
	.word	($str$dispatchTable)
	.word	1                               # 0x1
	.word	.Lstr.const_101
	.size	const_101, 20

	.type	.Lstr.const_101,@object         # @str.const_101
	.section	.sdata,"aw",@progbits
.Lstr.const_101:
	.asciz	"\\"
	.size	.Lstr.const_101, 2

	.type	char_list_const101,@object      # @char_list_const101
	.section	.sbss,"aw",@nobits
	.globl	char_list_const101
	.p2align	2
char_list_const101:
	.word	0
	.size	char_list_const101, 4

	.type	const_102,@object               # @const_102
	.data
	.globl	const_102
	.p2align	4
const_102:
	.word	3                               # 0x3
	.word	5                               # 0x5
	.word	($str$dispatchTable)
	.word	1                               # 0x1
	.word	.Lstr.const_102
	.size	const_102, 20

	.type	.Lstr.const_102,@object         # @str.const_102
	.section	.sdata,"aw",@progbits
.Lstr.const_102:
	.asciz	"]"
	.size	.Lstr.const_102, 2

	.type	char_list_const102,@object      # @char_list_const102
	.section	.sbss,"aw",@nobits
	.globl	char_list_const102
	.p2align	2
char_list_const102:
	.word	0
	.size	char_list_const102, 4

	.type	const_103,@object               # @const_103
	.data
	.globl	const_103
	.p2align	4
const_103:
	.word	3                               # 0x3
	.word	5                               # 0x5
	.word	($str$dispatchTable)
	.word	1                               # 0x1
	.word	.Lstr.const_103
	.size	const_103, 20

	.type	.Lstr.const_103,@object         # @str.const_103
	.section	.sdata,"aw",@progbits
.Lstr.const_103:
	.asciz	"^"
	.size	.Lstr.const_103, 2

	.type	char_list_const103,@object      # @char_list_const103
	.section	.sbss,"aw",@nobits
	.globl	char_list_const103
	.p2align	2
char_list_const103:
	.word	0
	.size	char_list_const103, 4

	.type	const_104,@object               # @const_104
	.data
	.globl	const_104
	.p2align	4
const_104:
	.word	3                               # 0x3
	.word	5                               # 0x5
	.word	($str$dispatchTable)
	.word	1                               # 0x1
	.word	.Lstr.const_104
	.size	const_104, 20

	.type	.Lstr.const_104,@object         # @str.const_104
	.section	.sdata,"aw",@progbits
.Lstr.const_104:
	.asciz	"_"
	.size	.Lstr.const_104, 2

	.type	char_list_const104,@object      # @char_list_const104
	.section	.sbss,"aw",@nobits
	.globl	char_list_const104
	.p2align	2
char_list_const104:
	.word	0
	.size	char_list_const104, 4

	.type	const_105,@object               # @const_105
	.data
	.globl	const_105
	.p2align	4
const_105:
	.word	3                               # 0x3
	.word	5                               # 0x5
	.word	($str$dispatchTable)
	.word	1                               # 0x1
	.word	.Lstr.const_105
	.size	const_105, 20

	.type	.Lstr.const_105,@object         # @str.const_105
	.section	.sdata,"aw",@progbits
.Lstr.const_105:
	.asciz	"`"
	.size	.Lstr.const_105, 2

	.type	char_list_const105,@object      # @char_list_const105
	.section	.sbss,"aw",@nobits
	.globl	char_list_const105
	.p2align	2
char_list_const105:
	.word	0
	.size	char_list_const105, 4

	.type	const_106,@object               # @const_106
	.data
	.globl	const_106
	.p2align	4
const_106:
	.word	3                               # 0x3
	.word	5                               # 0x5
	.word	($str$dispatchTable)
	.word	1                               # 0x1
	.word	.Lstr.const_106
	.size	const_106, 20

	.type	.Lstr.const_106,@object         # @str.const_106
	.section	.sdata,"aw",@progbits
.Lstr.const_106:
	.asciz	"a"
	.size	.Lstr.const_106, 2

	.type	char_list_const106,@object      # @char_list_const106
	.section	.sbss,"aw",@nobits
	.globl	char_list_const106
	.p2align	2
char_list_const106:
	.word	0
	.size	char_list_const106, 4

	.type	const_107,@object               # @const_107
	.data
	.globl	const_107
	.p2align	4
const_107:
	.word	3                               # 0x3
	.word	5                               # 0x5
	.word	($str$dispatchTable)
	.word	1                               # 0x1
	.word	.Lstr.const_107
	.size	const_107, 20

	.type	.Lstr.const_107,@object         # @str.const_107
	.section	.sdata,"aw",@progbits
.Lstr.const_107:
	.asciz	"b"
	.size	.Lstr.const_107, 2

	.type	char_list_const107,@object      # @char_list_const107
	.section	.sbss,"aw",@nobits
	.globl	char_list_const107
	.p2align	2
char_list_const107:
	.word	0
	.size	char_list_const107, 4

	.type	const_108,@object               # @const_108
	.data
	.globl	const_108
	.p2align	4
const_108:
	.word	3                               # 0x3
	.word	5                               # 0x5
	.word	($str$dispatchTable)
	.word	1                               # 0x1
	.word	.Lstr.const_108
	.size	const_108, 20

	.type	.Lstr.const_108,@object         # @str.const_108
	.section	.sdata,"aw",@progbits
.Lstr.const_108:
	.asciz	"c"
	.size	.Lstr.const_108, 2

	.type	char_list_const108,@object      # @char_list_const108
	.section	.sbss,"aw",@nobits
	.globl	char_list_const108
	.p2align	2
char_list_const108:
	.word	0
	.size	char_list_const108, 4

	.type	const_109,@object               # @const_109
	.data
	.globl	const_109
	.p2align	4
const_109:
	.word	3                               # 0x3
	.word	5                               # 0x5
	.word	($str$dispatchTable)
	.word	1                               # 0x1
	.word	.Lstr.const_109
	.size	const_109, 20

	.type	.Lstr.const_109,@object         # @str.const_109
	.section	.sdata,"aw",@progbits
.Lstr.const_109:
	.asciz	"d"
	.size	.Lstr.const_109, 2

	.type	char_list_const109,@object      # @char_list_const109
	.section	.sbss,"aw",@nobits
	.globl	char_list_const109
	.p2align	2
char_list_const109:
	.word	0
	.size	char_list_const109, 4

	.type	const_110,@object               # @const_110
	.data
	.globl	const_110
	.p2align	4
const_110:
	.word	3                               # 0x3
	.word	5                               # 0x5
	.word	($str$dispatchTable)
	.word	1                               # 0x1
	.word	.Lstr.const_110
	.size	const_110, 20

	.type	.Lstr.const_110,@object         # @str.const_110
	.section	.sdata,"aw",@progbits
.Lstr.const_110:
	.asciz	"e"
	.size	.Lstr.const_110, 2

	.type	char_list_const110,@object      # @char_list_const110
	.section	.sbss,"aw",@nobits
	.globl	char_list_const110
	.p2align	2
char_list_const110:
	.word	0
	.size	char_list_const110, 4

	.type	const_111,@object               # @const_111
	.data
	.globl	const_111
	.p2align	4
const_111:
	.word	3                               # 0x3
	.word	5                               # 0x5
	.word	($str$dispatchTable)
	.word	1                               # 0x1
	.word	.Lstr.const_111
	.size	const_111, 20

	.type	.Lstr.const_111,@object         # @str.const_111
	.section	.sdata,"aw",@progbits
.Lstr.const_111:
	.asciz	"f"
	.size	.Lstr.const_111, 2

	.type	char_list_const111,@object      # @char_list_const111
	.section	.sbss,"aw",@nobits
	.globl	char_list_const111
	.p2align	2
char_list_const111:
	.word	0
	.size	char_list_const111, 4

	.type	const_112,@object               # @const_112
	.data
	.globl	const_112
	.p2align	4
const_112:
	.word	3                               # 0x3
	.word	5                               # 0x5
	.word	($str$dispatchTable)
	.word	1                               # 0x1
	.word	.Lstr.const_112
	.size	const_112, 20

	.type	.Lstr.const_112,@object         # @str.const_112
	.section	.sdata,"aw",@progbits
.Lstr.const_112:
	.asciz	"g"
	.size	.Lstr.const_112, 2

	.type	char_list_const112,@object      # @char_list_const112
	.section	.sbss,"aw",@nobits
	.globl	char_list_const112
	.p2align	2
char_list_const112:
	.word	0
	.size	char_list_const112, 4

	.type	const_113,@object               # @const_113
	.data
	.globl	const_113
	.p2align	4
const_113:
	.word	3                               # 0x3
	.word	5                               # 0x5
	.word	($str$dispatchTable)
	.word	1                               # 0x1
	.word	.Lstr.const_113
	.size	const_113, 20

	.type	.Lstr.const_113,@object         # @str.const_113
	.section	.sdata,"aw",@progbits
.Lstr.const_113:
	.asciz	"h"
	.size	.Lstr.const_113, 2

	.type	char_list_const113,@object      # @char_list_const113
	.section	.sbss,"aw",@nobits
	.globl	char_list_const113
	.p2align	2
char_list_const113:
	.word	0
	.size	char_list_const113, 4

	.type	const_114,@object               # @const_114
	.data
	.globl	const_114
	.p2align	4
const_114:
	.word	3                               # 0x3
	.word	5                               # 0x5
	.word	($str$dispatchTable)
	.word	1                               # 0x1
	.word	.Lstr.const_114
	.size	const_114, 20

	.type	.Lstr.const_114,@object         # @str.const_114
	.section	.sdata,"aw",@progbits
.Lstr.const_114:
	.asciz	"i"
	.size	.Lstr.const_114, 2

	.type	char_list_const114,@object      # @char_list_const114
	.section	.sbss,"aw",@nobits
	.globl	char_list_const114
	.p2align	2
char_list_const114:
	.word	0
	.size	char_list_const114, 4

	.type	const_115,@object               # @const_115
	.data
	.globl	const_115
	.p2align	4
const_115:
	.word	3                               # 0x3
	.word	5                               # 0x5
	.word	($str$dispatchTable)
	.word	1                               # 0x1
	.word	.Lstr.const_115
	.size	const_115, 20

	.type	.Lstr.const_115,@object         # @str.const_115
	.section	.sdata,"aw",@progbits
.Lstr.const_115:
	.asciz	"j"
	.size	.Lstr.const_115, 2

	.type	char_list_const115,@object      # @char_list_const115
	.section	.sbss,"aw",@nobits
	.globl	char_list_const115
	.p2align	2
char_list_const115:
	.word	0
	.size	char_list_const115, 4

	.type	const_116,@object               # @const_116
	.data
	.globl	const_116
	.p2align	4
const_116:
	.word	3                               # 0x3
	.word	5                               # 0x5
	.word	($str$dispatchTable)
	.word	1                               # 0x1
	.word	.Lstr.const_116
	.size	const_116, 20

	.type	.Lstr.const_116,@object         # @str.const_116
	.section	.sdata,"aw",@progbits
.Lstr.const_116:
	.asciz	"k"
	.size	.Lstr.const_116, 2

	.type	char_list_const116,@object      # @char_list_const116
	.section	.sbss,"aw",@nobits
	.globl	char_list_const116
	.p2align	2
char_list_const116:
	.word	0
	.size	char_list_const116, 4

	.type	const_117,@object               # @const_117
	.data
	.globl	const_117
	.p2align	4
const_117:
	.word	3                               # 0x3
	.word	5                               # 0x5
	.word	($str$dispatchTable)
	.word	1                               # 0x1
	.word	.Lstr.const_117
	.size	const_117, 20

	.type	.Lstr.const_117,@object         # @str.const_117
	.section	.sdata,"aw",@progbits
.Lstr.const_117:
	.asciz	"l"
	.size	.Lstr.const_117, 2

	.type	char_list_const117,@object      # @char_list_const117
	.section	.sbss,"aw",@nobits
	.globl	char_list_const117
	.p2align	2
char_list_const117:
	.word	0
	.size	char_list_const117, 4

	.type	const_118,@object               # @const_118
	.data
	.globl	const_118
	.p2align	4
const_118:
	.word	3                               # 0x3
	.word	5                               # 0x5
	.word	($str$dispatchTable)
	.word	1                               # 0x1
	.word	.Lstr.const_118
	.size	const_118, 20

	.type	.Lstr.const_118,@object         # @str.const_118
	.section	.sdata,"aw",@progbits
.Lstr.const_118:
	.asciz	"m"
	.size	.Lstr.const_118, 2

	.type	char_list_const118,@object      # @char_list_const118
	.section	.sbss,"aw",@nobits
	.globl	char_list_const118
	.p2align	2
char_list_const118:
	.word	0
	.size	char_list_const118, 4

	.type	const_119,@object               # @const_119
	.data
	.globl	const_119
	.p2align	4
const_119:
	.word	3                               # 0x3
	.word	5                               # 0x5
	.word	($str$dispatchTable)
	.word	1                               # 0x1
	.word	.Lstr.const_119
	.size	const_119, 20

	.type	.Lstr.const_119,@object         # @str.const_119
	.section	.sdata,"aw",@progbits
.Lstr.const_119:
	.asciz	"n"
	.size	.Lstr.const_119, 2

	.type	char_list_const119,@object      # @char_list_const119
	.section	.sbss,"aw",@nobits
	.globl	char_list_const119
	.p2align	2
char_list_const119:
	.word	0
	.size	char_list_const119, 4

	.type	const_120,@object               # @const_120
	.data
	.globl	const_120
	.p2align	4
const_120:
	.word	3                               # 0x3
	.word	5                               # 0x5
	.word	($str$dispatchTable)
	.word	1                               # 0x1
	.word	.Lstr.const_120
	.size	const_120, 20

	.type	.Lstr.const_120,@object         # @str.const_120
	.section	.sdata,"aw",@progbits
.Lstr.const_120:
	.asciz	"o"
	.size	.Lstr.const_120, 2

	.type	char_list_const120,@object      # @char_list_const120
	.section	.sbss,"aw",@nobits
	.globl	char_list_const120
	.p2align	2
char_list_const120:
	.word	0
	.size	char_list_const120, 4

	.type	const_121,@object               # @const_121
	.data
	.globl	const_121
	.p2align	4
const_121:
	.word	3                               # 0x3
	.word	5                               # 0x5
	.word	($str$dispatchTable)
	.word	1                               # 0x1
	.word	.Lstr.const_121
	.size	const_121, 20

	.type	.Lstr.const_121,@object         # @str.const_121
	.section	.sdata,"aw",@progbits
.Lstr.const_121:
	.asciz	"p"
	.size	.Lstr.const_121, 2

	.type	char_list_const121,@object      # @char_list_const121
	.section	.sbss,"aw",@nobits
	.globl	char_list_const121
	.p2align	2
char_list_const121:
	.word	0
	.size	char_list_const121, 4

	.type	const_122,@object               # @const_122
	.data
	.globl	const_122
	.p2align	4
const_122:
	.word	3                               # 0x3
	.word	5                               # 0x5
	.word	($str$dispatchTable)
	.word	1                               # 0x1
	.word	.Lstr.const_122
	.size	const_122, 20

	.type	.Lstr.const_122,@object         # @str.const_122
	.section	.sdata,"aw",@progbits
.Lstr.const_122:
	.asciz	"q"
	.size	.Lstr.const_122, 2

	.type	char_list_const122,@object      # @char_list_const122
	.section	.sbss,"aw",@nobits
	.globl	char_list_const122
	.p2align	2
char_list_const122:
	.word	0
	.size	char_list_const122, 4

	.type	const_123,@object               # @const_123
	.data
	.globl	const_123
	.p2align	4
const_123:
	.word	3                               # 0x3
	.word	5                               # 0x5
	.word	($str$dispatchTable)
	.word	1                               # 0x1
	.word	.Lstr.const_123
	.size	const_123, 20

	.type	.Lstr.const_123,@object         # @str.const_123
	.section	.sdata,"aw",@progbits
.Lstr.const_123:
	.asciz	"r"
	.size	.Lstr.const_123, 2

	.type	char_list_const123,@object      # @char_list_const123
	.section	.sbss,"aw",@nobits
	.globl	char_list_const123
	.p2align	2
char_list_const123:
	.word	0
	.size	char_list_const123, 4

	.type	const_124,@object               # @const_124
	.data
	.globl	const_124
	.p2align	4
const_124:
	.word	3                               # 0x3
	.word	5                               # 0x5
	.word	($str$dispatchTable)
	.word	1                               # 0x1
	.word	.Lstr.const_124
	.size	const_124, 20

	.type	.Lstr.const_124,@object         # @str.const_124
	.section	.sdata,"aw",@progbits
.Lstr.const_124:
	.asciz	"s"
	.size	.Lstr.const_124, 2

	.type	char_list_const124,@object      # @char_list_const124
	.section	.sbss,"aw",@nobits
	.globl	char_list_const124
	.p2align	2
char_list_const124:
	.word	0
	.size	char_list_const124, 4

	.type	const_125,@object               # @const_125
	.data
	.globl	const_125
	.p2align	4
const_125:
	.word	3                               # 0x3
	.word	5                               # 0x5
	.word	($str$dispatchTable)
	.word	1                               # 0x1
	.word	.Lstr.const_125
	.size	const_125, 20

	.type	.Lstr.const_125,@object         # @str.const_125
	.section	.sdata,"aw",@progbits
.Lstr.const_125:
	.asciz	"t"
	.size	.Lstr.const_125, 2

	.type	char_list_const125,@object      # @char_list_const125
	.section	.sbss,"aw",@nobits
	.globl	char_list_const125
	.p2align	2
char_list_const125:
	.word	0
	.size	char_list_const125, 4

	.type	const_126,@object               # @const_126
	.data
	.globl	const_126
	.p2align	4
const_126:
	.word	3                               # 0x3
	.word	5                               # 0x5
	.word	($str$dispatchTable)
	.word	1                               # 0x1
	.word	.Lstr.const_126
	.size	const_126, 20

	.type	.Lstr.const_126,@object         # @str.const_126
	.section	.sdata,"aw",@progbits
.Lstr.const_126:
	.asciz	"u"
	.size	.Lstr.const_126, 2

	.type	char_list_const126,@object      # @char_list_const126
	.section	.sbss,"aw",@nobits
	.globl	char_list_const126
	.p2align	2
char_list_const126:
	.word	0
	.size	char_list_const126, 4

	.type	const_127,@object               # @const_127
	.data
	.globl	const_127
	.p2align	4
const_127:
	.word	3                               # 0x3
	.word	5                               # 0x5
	.word	($str$dispatchTable)
	.word	1                               # 0x1
	.word	.Lstr.const_127
	.size	const_127, 20

	.type	.Lstr.const_127,@object         # @str.const_127
	.section	.sdata,"aw",@progbits
.Lstr.const_127:
	.asciz	"v"
	.size	.Lstr.const_127, 2

	.type	char_list_const127,@object      # @char_list_const127
	.section	.sbss,"aw",@nobits
	.globl	char_list_const127
	.p2align	2
char_list_const127:
	.word	0
	.size	char_list_const127, 4

	.type	const_128,@object               # @const_128
	.data
	.globl	const_128
	.p2align	4
const_128:
	.word	3                               # 0x3
	.word	5                               # 0x5
	.word	($str$dispatchTable)
	.word	1                               # 0x1
	.word	.Lstr.const_128
	.size	const_128, 20

	.type	.Lstr.const_128,@object         # @str.const_128
	.section	.sdata,"aw",@progbits
.Lstr.const_128:
	.asciz	"w"
	.size	.Lstr.const_128, 2

	.type	char_list_const128,@object      # @char_list_const128
	.section	.sbss,"aw",@nobits
	.globl	char_list_const128
	.p2align	2
char_list_const128:
	.word	0
	.size	char_list_const128, 4

	.type	const_129,@object               # @const_129
	.data
	.globl	const_129
	.p2align	4
const_129:
	.word	3                               # 0x3
	.word	5                               # 0x5
	.word	($str$dispatchTable)
	.word	1                               # 0x1
	.word	.Lstr.const_129
	.size	const_129, 20

	.type	.Lstr.const_129,@object         # @str.const_129
	.section	.sdata,"aw",@progbits
.Lstr.const_129:
	.asciz	"x"
	.size	.Lstr.const_129, 2

	.type	char_list_const129,@object      # @char_list_const129
	.section	.sbss,"aw",@nobits
	.globl	char_list_const129
	.p2align	2
char_list_const129:
	.word	0
	.size	char_list_const129, 4

	.type	const_130,@object               # @const_130
	.data
	.globl	const_130
	.p2align	4
const_130:
	.word	3                               # 0x3
	.word	5                               # 0x5
	.word	($str$dispatchTable)
	.word	1                               # 0x1
	.word	.Lstr.const_130
	.size	const_130, 20

	.type	.Lstr.const_130,@object         # @str.const_130
	.section	.sdata,"aw",@progbits
.Lstr.const_130:
	.asciz	"y"
	.size	.Lstr.const_130, 2

	.type	char_list_const130,@object      # @char_list_const130
	.section	.sbss,"aw",@nobits
	.globl	char_list_const130
	.p2align	2
char_list_const130:
	.word	0
	.size	char_list_const130, 4

	.type	const_131,@object               # @const_131
	.data
	.globl	const_131
	.p2align	4
const_131:
	.word	3                               # 0x3
	.word	5                               # 0x5
	.word	($str$dispatchTable)
	.word	1                               # 0x1
	.word	.Lstr.const_131
	.size	const_131, 20

	.type	.Lstr.const_131,@object         # @str.const_131
	.section	.sdata,"aw",@progbits
.Lstr.const_131:
	.asciz	"z"
	.size	.Lstr.const_131, 2

	.type	char_list_const131,@object      # @char_list_const131
	.section	.sbss,"aw",@nobits
	.globl	char_list_const131
	.p2align	2
char_list_const131:
	.word	0
	.size	char_list_const131, 4

	.type	const_132,@object               # @const_132
	.data
	.globl	const_132
	.p2align	4
const_132:
	.word	3                               # 0x3
	.word	5                               # 0x5
	.word	($str$dispatchTable)
	.word	1                               # 0x1
	.word	.Lstr.const_132
	.size	const_132, 20

	.type	.Lstr.const_132,@object         # @str.const_132
	.section	.sdata,"aw",@progbits
.Lstr.const_132:
	.asciz	"{"
	.size	.Lstr.const_132, 2

	.type	char_list_const132,@object      # @char_list_const132
	.section	.sbss,"aw",@nobits
	.globl	char_list_const132
	.p2align	2
char_list_const132:
	.word	0
	.size	char_list_const132, 4

	.type	const_133,@object               # @const_133
	.data
	.globl	const_133
	.p2align	4
const_133:
	.word	3                               # 0x3
	.word	5                               # 0x5
	.word	($str$dispatchTable)
	.word	1                               # 0x1
	.word	.Lstr.const_133
	.size	const_133, 20

	.type	.Lstr.const_133,@object         # @str.const_133
	.section	.sdata,"aw",@progbits
.Lstr.const_133:
	.asciz	"|"
	.size	.Lstr.const_133, 2

	.type	char_list_const133,@object      # @char_list_const133
	.section	.sbss,"aw",@nobits
	.globl	char_list_const133
	.p2align	2
char_list_const133:
	.word	0
	.size	char_list_const133, 4

	.type	const_134,@object               # @const_134
	.data
	.globl	const_134
	.p2align	4
const_134:
	.word	3                               # 0x3
	.word	5                               # 0x5
	.word	($str$dispatchTable)
	.word	1                               # 0x1
	.word	.Lstr.const_134
	.size	const_134, 20

	.type	.Lstr.const_134,@object         # @str.const_134
	.section	.sdata,"aw",@progbits
.Lstr.const_134:
	.asciz	"}"
	.size	.Lstr.const_134, 2

	.type	char_list_const134,@object      # @char_list_const134
	.section	.sbss,"aw",@nobits
	.globl	char_list_const134
	.p2align	2
char_list_const134:
	.word	0
	.size	char_list_const134, 4

	.type	const_135,@object               # @const_135
	.data
	.globl	const_135
	.p2align	4
const_135:
	.word	3                               # 0x3
	.word	5                               # 0x5
	.word	($str$dispatchTable)
	.word	1                               # 0x1
	.word	.Lstr.const_135
	.size	const_135, 20

	.type	.Lstr.const_135,@object         # @str.const_135
	.section	.sdata,"aw",@progbits
.Lstr.const_135:
	.asciz	"~"
	.size	.Lstr.const_135, 2

	.type	char_list_const135,@object      # @char_list_const135
	.section	.sbss,"aw",@nobits
	.globl	char_list_const135
	.p2align	2
char_list_const135:
	.word	0
	.size	char_list_const135, 4

	.type	global_char_table,@object       # @global_char_table
	.globl	global_char_table
	.p2align	2
global_char_table:
	.word	0
	.size	global_char_table, 4

	.type	invalid_list_pointer,@object    # @invalid_list_pointer
	.globl	invalid_list_pointer
	.p2align	2
invalid_list_pointer:
	.word	0
	.size	invalid_list_pointer, 4

	.type	const_136,@object               # @const_136
	.data
	.globl	const_136
	.p2align	4
const_136:
	.word	3                               # 0x3
	.word	6                               # 0x6
	.word	($str$dispatchTable)
	.word	5                               # 0x5
	.word	.Lstr.const_136
	.size	const_136, 20

	.type	.Lstr.const_136,@object         # @str.const_136
	.section	.sdata,"aw",@progbits
.Lstr.const_136:
	.asciz	"Hello"
	.size	.Lstr.const_136, 6

	.type	a,@object                       # @a
	.section	.sbss,"aw",@nobits
	.globl	a
	.p2align	2
a:
	.word	0
	.size	a, 4

	.type	const_137,@object               # @const_137
	.data
	.globl	const_137
	.p2align	4
const_137:
	.word	3                               # 0x3
	.word	6                               # 0x6
	.word	($str$dispatchTable)
	.word	5                               # 0x5
	.word	.Lstr.const_137
	.size	const_137, 20

	.type	.Lstr.const_137,@object         # @str.const_137
	.section	.sdata,"aw",@progbits
.Lstr.const_137:
	.asciz	"World"
	.size	.Lstr.const_137, 6

	.type	b,@object                       # @b
	.section	.sbss,"aw",@nobits
	.globl	b
	.p2align	2
b:
	.word	0
	.size	b, 4

	.type	const_138,@object               # @const_138
	.data
	.globl	const_138
	.p2align	4
const_138:
	.word	3                               # 0x3
	.word	6                               # 0x6
	.word	($str$dispatchTable)
	.word	7                               # 0x7
	.word	.Lstr.const_138
	.size	const_138, 20

	.type	.Lstr.const_138,@object         # @str.const_138
	.section	.sdata,"aw",@progbits
.Lstr.const_138:
	.asciz	"ChocoPy"
	.size	.Lstr.const_138, 8

	.type	c,@object                       # @c
	.section	.sbss,"aw",@nobits
	.globl	c
	.p2align	2
c:
	.word	0
	.size	c, 4

	.type	const_139,@object               # @const_139
	.data
	.globl	const_139
	.p2align	4
const_139:
	.word	3                               # 0x3
	.word	5                               # 0x5
	.word	($str$dispatchTable)
	.word	0                               # 0x0
	.word	.Lstr.const_139
	.size	const_139, 20

	.type	.Lstr.const_139,@object         # @str.const_139
	.section	.sbss,"aw",@nobits
.Lstr.const_139:
	.zero	1
	.size	.Lstr.const_139, 1

	.type	ptr_const_139,@object           # @ptr_const_139
	.globl	ptr_const_139
	.p2align	2
ptr_const_139:
	.word	0
	.size	ptr_const_139, 4

	.type	const_140,@object               # @const_140
	.data
	.globl	const_140
	.p2align	4
const_140:
	.word	3                               # 0x3
	.word	5                               # 0x5
	.word	($str$dispatchTable)
	.word	1                               # 0x1
	.word	.Lstr.const_140
	.size	const_140, 20

	.type	.Lstr.const_140,@object         # @str.const_140
	.section	.sdata,"aw",@progbits
.Lstr.const_140:
	.asciz	" "
	.size	.Lstr.const_140, 2

	.type	ptr_const_140,@object           # @ptr_const_140
	.section	.sbss,"aw",@nobits
	.globl	ptr_const_140
	.p2align	2
ptr_const_140:
	.word	0
	.size	ptr_const_140, 4

	.type	const_141,@object               # @const_141
	.data
	.globl	const_141
	.p2align	4
const_141:
	.word	3                               # 0x3
	.word	5                               # 0x5
	.word	($str$dispatchTable)
	.word	0                               # 0x0
	.word	.Lstr.const_141
	.size	const_141, 20

	.type	.Lstr.const_141,@object         # @str.const_141
	.section	.sbss,"aw",@nobits
.Lstr.const_141:
	.zero	1
	.size	.Lstr.const_141, 1

	.type	ptr_const_141,@object           # @ptr_const_141
	.globl	ptr_const_141
	.p2align	2
ptr_const_141:
	.word	0
	.size	ptr_const_141, 4

	.type	const_142,@object               # @const_142
	.data
	.globl	const_142
	.p2align	4
const_142:
	.word	3                               # 0x3
	.word	5                               # 0x5
	.word	($str$dispatchTable)
	.word	0                               # 0x0
	.word	.Lstr.const_142
	.size	const_142, 20

	.type	.Lstr.const_142,@object         # @str.const_142
	.section	.sbss,"aw",@nobits
.Lstr.const_142:
	.zero	1
	.size	.Lstr.const_142, 1

	.type	ptr_const_142,@object           # @ptr_const_142
	.globl	ptr_const_142
	.p2align	2
ptr_const_142:
	.word	0
	.size	ptr_const_142, 4

	.section	.init_array,"aw",@init_array
	.p2align	2
	.word	before_main
	.section	".note.GNU-stack","",@progbits
